 usb_bindings

 Timestamp is 586288f6 (Tue Dec 27 07:29:58 2016)

 Preferred load address is 10000000

 Start         Length     Name                   Class
 0001:00000000 000000e0H .text$di                CODE
 0001:000000e0 00030160H .text$mn                CODE
 0001:00030240 000006d0H .text$x                 CODE
 0001:00030910 00000178H .text$yd                CODE
 0002:00000000 00000308H .idata$5                DATA
 0002:00000308 00000004H .00cfg                  DATA
 0002:0000030c 00000004H .CRT$XCA                DATA
 0002:00000310 00000018H .CRT$XCU                DATA
 0002:00000328 00000004H .CRT$XCZ                DATA
 0002:0000032c 00000004H .CRT$XIA                DATA
 0002:00000330 0000000cH .CRT$XIC                DATA
 0002:0000033c 00000004H .CRT$XIZ                DATA
 0002:00000340 00000004H .CRT$XPA                DATA
 0002:00000344 00000008H .CRT$XPX                DATA
 0002:0000034c 00000004H .CRT$XPXA               DATA
 0002:00000350 00000004H .CRT$XPZ                DATA
 0002:00000354 00000004H .CRT$XTA                DATA
 0002:00000358 00000008H .CRT$XTZ                DATA
 0002:00000360 0000c2b4H .rdata                  DATA
 0002:0000c614 0000021cH .rdata$r                DATA
 0002:0000c830 0000009cH .rdata$sxdata           DATA
 0002:0000c8cc 00000388H .rdata$zzzdbg           DATA
 0002:0000cc54 00000004H .rtc$IAA                DATA
 0002:0000cc58 00000004H .rtc$IZZ                DATA
 0002:0000cc5c 00000004H .rtc$TAA                DATA
 0002:0000cc60 00000008H .rtc$TZZ                DATA
 0002:0000cc68 00000d48H .xdata$x                DATA
 0002:0000d9b0 0000005cH .edata                  DATA
 0002:0000da0c 0000003cH .idata$2                DATA
 0002:0000da48 00000014H .idata$3                DATA
 0002:0000da5c 00000308H .idata$4                DATA
 0002:0000dd64 00001b1cH .idata$6                DATA
 0003:00000000 00000890H .data                   DATA
 0003:00000890 000000f0H .data$r                 DATA
 0003:00000980 00004f98H .bss                    DATA
 0004:00000000 00000094H .gfids$x                DATA
 0004:00000094 00000074H .gfids$y                DATA
 0005:00000000 00000060H .rsrc$01                DATA
 0005:00000060 00000180H .rsrc$02                DATA

  Address         Publics by Value              Rva+Base       Lib:Object

 0000:00000000       __except_list              00000000     <absolute>
 0000:00000000       ___guard_longjmp_count     00000000     <absolute>
 0000:00000000       ___guard_fids_count        00000000     <absolute>
 0000:00000000       ___guard_longjmp_table     00000000     <absolute>
 0000:00000000       ___guard_iat_table         00000000     <absolute>
 0000:00000000       ___guard_iat_count         00000000     <absolute>
 0000:00000000       ___guard_fids_table        00000000     <absolute>
 0000:00000000       ___dynamic_value_reloc_table 00000000     <absolute>
 0000:00000027       ___safe_se_handler_count   00000027     <absolute>
 0000:00000100       ___guard_flags             00000100     <absolute>
 0000:00000000       ___ImageBase               10000000     <linker-defined>
 0001:000001a0       ?New@?$Factory@VFunctionTemplate@v8@@@imp@Nan@@SA?AV?$Local@VFunctionTemplate@v8@@@v8@@P6AXABV?$FunctionCallbackInfo@VValue@v8@@@3@@ZV?$Local@VValue@v8@@@5@V?$Local@VSignature@v8@@@5@@Z 100011a0 f i node_usb.obj
 0001:00000300       ?Error@Nan@@YA?AV?$Local@VValue@v8@@@v8@@PBD@Z 10001300 f i node_usb.obj
 0001:000003b0       ??1EscapableHandleScope@Nan@@QAE@XZ 100013b0 f i node_usb.obj
 0001:000003b0       ??1HandleScope@Nan@@QAE@XZ 100013b0 f i node_usb.obj
 0001:000003c0       ?ThrowTypeError@Nan@@YAXPBD@Z 100013c0 f i node_usb.obj
 0001:00000460       ?ThrowError@Nan@@YAXV?$Local@VValue@v8@@@v8@@@Z 10001460 f i node_usb.obj
 0001:00000480       ??1?$Persistent@VObject@v8@@V?$NonCopyablePersistentTraits@VObject@v8@@@2@@Nan@@QAE@XZ 10001480 f i node_usb.obj
 0001:00000480       ??1?$Persistent@VFunction@v8@@V?$NonCopyablePersistentTraits@VFunction@v8@@@2@@Nan@@QAE@XZ 10001480 f i device.obj
 0001:000004c0       ?USBThreadFn@@YAXPAX@Z     100014c0 f   node_usb.obj
 0001:00000500       _Initialize                10001500 f   node_usb.obj
 0001:00000630       ?SetDebugLevel@@YAXABV?$FunctionCallbackInfo@VValue@v8@@@Nan@@@Z 10001630 f   node_usb.obj
 0001:00000740       ?GetDeviceList@@YAXABV?$FunctionCallbackInfo@VValue@v8@@@Nan@@@Z 10001740 f   node_usb.obj
 0001:00000860       ?handleHotplug@@YAXU?$pair@PAUlibusb_device@@W4libusb_hotplug_event@@@std@@@Z 10001860 f   node_usb.obj
 0001:00000960       ?hotplug_callback@@YGHPAUlibusb_context@@PAUlibusb_device@@W4libusb_hotplug_event@@PAX@Z 10001960 f   node_usb.obj
 0001:00000a00       ?EnableHotplugEvents@@YAXABV?$FunctionCallbackInfo@VValue@v8@@@Nan@@@Z 10001a00 f   node_usb.obj
 0001:00000b20       ?DisableHotplugEvents@@YAXABV?$FunctionCallbackInfo@VValue@v8@@@Nan@@@Z 10001b20 f   node_usb.obj
 0001:00000be0       ?initConstants@@YAXV?$Local@VObject@v8@@@v8@@@Z 10001be0 f   node_usb.obj
 0001:00002f50       ?libusbException@@YA?AV?$Local@VValue@v8@@@v8@@H@Z 10003f50 f   node_usb.obj
 0001:00003010       ??0?$UVQueue@U?$pair@PAUlibusb_device@@W4libusb_hotplug_event@@@std@@@@QAE@P6AXU?$pair@PAUlibusb_device@@W4libusb_hotplug_event@@@std@@@ZH@Z 10004010 f i node_usb.obj
 0001:000030e0       ?internal_callback@?$UVQueue@U?$pair@PAUlibusb_device@@W4libusb_hotplug_event@@@std@@@@CAXPAUuv_async_s@@@Z 100040e0 f i node_usb.obj
 0001:00003190       ?_Tidy@?$deque@U?$pair@PAUlibusb_device@@W4libusb_hotplug_event@@@std@@V?$allocator@U?$pair@PAUlibusb_device@@W4libusb_hotplug_event@@@std@@@2@@std@@IAEXXZ 10004190 f i node_usb.obj
 0001:00003190       ?_Tidy@?$deque@PAUTransfer@@V?$allocator@PAUTransfer@@@std@@@std@@IAEXXZ 10004190 f i transfer.obj
 0001:00003250       ?push_back@?$deque@U?$pair@PAUlibusb_device@@W4libusb_hotplug_event@@@std@@V?$allocator@U?$pair@PAUlibusb_device@@W4libusb_hotplug_event@@@std@@@2@@std@@QAEXABU?$pair@PAUlibusb_device@@W4libusb_hotplug_event@@@2@@Z 10004250 f i node_usb.obj
 0001:000032e0       ___except_validate_jump_buffer 100042e0 f i libvcruntime:jbcxrval.obj
 0001:000032e0       ??3@YAXPAX0@Z              100042e0 f i device.obj
 0001:000032e0       ?_Orphan_all@?$_Deque_alloc@U?$_Deque_base_types@PAUTransfer@@V?$allocator@PAUTransfer@@@std@@@std@@@std@@QAEXXZ 100042e0 f i transfer.obj
 0001:000032e0       ??1?$_Compressed_pair@U?$_Wrap_alloc@V?$allocator@U?$pair@PAUlibusb_device@@W4libusb_hotplug_event@@@std@@@std@@@std@@V?$_Deque_val@U?$_Deque_simple_types@U?$pair@PAUlibusb_device@@W4libusb_hotplug_event@@@std@@@std@@@2@$00@std@@QAE@XZ 100042e0 f i node_usb.obj
 0001:000032e0       ??1?$_Compressed_pair@U?$_Wrap_alloc@V?$allocator@PAUTransfer@@@std@@@std@@V?$_Deque_val@U?$_Deque_simple_types@PAUTransfer@@@std@@@2@$00@std@@QAE@XZ 100042e0 f i transfer.obj
 0001:000032e0       ?_Orphan_all@?$_Deque_alloc@U?$_Deque_base_types@U?$pair@PAUlibusb_device@@W4libusb_hotplug_event@@@std@@V?$allocator@U?$pair@PAUlibusb_device@@W4libusb_hotplug_event@@@std@@@2@@std@@@std@@QAEXXZ 100042e0 f i node_usb.obj
 0001:000032e0       @_guard_check_icall_nop@4  100042e0 f i LIBCMT:guard_support.obj
 0001:000032e0       ___except_validate_context_record 100042e0 f i libvcruntime:jbcxrval.obj
 0001:000032f0       ?deallocate@?$_Wrap_alloc@V?$allocator@PAU?$pair@PAUlibusb_device@@W4libusb_hotplug_event@@@std@@@std@@@std@@QAEXPAPAU?$pair@PAUlibusb_device@@W4libusb_hotplug_event@@@2@I@Z 100042f0 f i node_usb.obj
 0001:000032f0       ?deallocate@?$_Wrap_alloc@V?$allocator@PAPAUTransfer@@@std@@@std@@QAEXPAPAPAUTransfer@@I@Z 100042f0 f i transfer.obj
 0001:00003350       ?_Growmap@?$deque@U?$pair@PAUlibusb_device@@W4libusb_hotplug_event@@@std@@V?$allocator@U?$pair@PAUlibusb_device@@W4libusb_hotplug_event@@@std@@@2@@std@@IAEXI@Z 10004350 f i node_usb.obj
 0001:000034d0       ?begin@?$deque@U?$pair@PAUlibusb_device@@W4libusb_hotplug_event@@@std@@V?$allocator@U?$pair@PAUlibusb_device@@W4libusb_hotplug_event@@@std@@@2@@std@@QAE?AV?$_Deque_iterator@V?$_Deque_val@U?$_Deque_simple_types@U?$pair@PAUlibusb_device@@W4libusb_hotplug_event@@@std@@@std@@@std@@@2@XZ 100044d0 f i node_usb.obj
 0001:000034d0       ?begin@?$deque@PAUTransfer@@V?$allocator@PAUTransfer@@@std@@@std@@QAE?AV?$_Deque_iterator@V?$_Deque_val@U?$_Deque_simple_types@PAUTransfer@@@std@@@std@@@2@XZ 100044d0 f i transfer.obj
 0001:000034f0       ??$Reset@VObject@v8@@@?$Persistent@VObject@v8@@V?$NonCopyablePersistentTraits@VObject@v8@@@2@@Nan@@QAEXABV?$Local@VObject@v8@@@v8@@@Z 100044f0 f i node_usb.obj
 0001:000034f0       ??$Reset@VFunction@v8@@@?$Persistent@VFunction@v8@@V?$NonCopyablePersistentTraits@VFunction@v8@@@2@@Nan@@QAEXABV?$Local@VFunction@v8@@@v8@@@Z 100044f0 f i device.obj
 0001:00003530       ??$SetMethod@VObject@v8@@VLocal@2@@Nan@@YAXV?$Local@VObject@v8@@@v8@@PBDP6AXABV?$FunctionCallbackInfo@VValue@v8@@@0@@Z@Z 10004530 f i node_usb.obj
 0001:000035f0       ??$?0AAU?$_Wrap_alloc@V?$allocator@PAUTransfer@@@std@@@std@@@?$_Wrap_alloc@V?$allocator@U_Container_proxy@std@@@std@@@std@@QAE@AAU?$_Wrap_alloc@V?$allocator@PAUTransfer@@@std@@@1@@Z 100045f0 f i transfer.obj
 0001:000035f0       ??$?0AAU?$_Wrap_alloc@V?$allocator@U?$pair@PAUlibusb_device@@W4libusb_hotplug_event@@@std@@@std@@@std@@@?$_Wrap_alloc@V?$allocator@U_Container_proxy@std@@@std@@@std@@QAE@AAU?$_Wrap_alloc@V?$allocator@U?$pair@PAUlibusb_device@@W4libusb_hotplug_event@@@std@@@std@@@1@@Z 100045f0 f i node_usb.obj
 0001:00003600       ??$destroy@U_Container_proxy@std@@@?$_Wrap_alloc@V?$allocator@U_Container_proxy@std@@@std@@@std@@QAEXPAU_Container_proxy@1@@Z 10004600 f i node_usb.obj
 0001:00003600       ??$destroy@PAU?$_Tree_node@U?$pair@QAUlibusb_device@@V?$Persistent@VObject@v8@@V?$NonCopyablePersistentTraits@VObject@v8@@@2@@Nan@@@std@@PAX@std@@@?$_Wrap_alloc@V?$allocator@U?$_Tree_node@U?$pair@QAUlibusb_device@@V?$Persistent@VObject@v8@@V?$NonCopyablePersistentTraits@VObject@v8@@@2@@Nan@@@std@@PAX@std@@@std@@@std@@QAEXPAPAU?$_Tree_node@U?$pair@QAUlibusb_device@@V?$Persistent@VObject@v8@@V?$NonCopyablePersistentTraits@VObject@v8@@@2@@Nan@@@std@@PAX@1@@Z 10004600 f i device.obj
 0001:00003610       ??$SetMethodAux@V?$Local@VObject@v8@@@v8@@@imp@Nan@@YAXV?$Local@VObject@v8@@@v8@@V?$Local@VString@v8@@@3@V?$Local@VFunctionTemplate@v8@@@3@ZZ 10004610 f i node_usb.obj
 0001:00003670       ?New@Nan@@YA?AV?$Local@VInt32@v8@@@v8@@H@Z 10004670 f i device.obj
 0001:000036d0       ?ThrowError@Nan@@YAXPBD@Z  100046d0 f i device.obj
 0001:00003770       ?SetPrototypeMethod@Nan@@YAXV?$Local@VFunctionTemplate@v8@@@v8@@PBDP6AXABV?$FunctionCallbackInfo@VValue@v8@@@1@@Z@Z 10004770 f i device.obj
 0001:00003850       ??1ObjectWrap@Nan@@UAE@XZ  10004850 f i device.obj
 0001:000038e0       ?Wrap@ObjectWrap@Nan@@IAEXV?$Local@VObject@v8@@@v8@@@Z 100048e0 f i device.obj
 0001:00003950       ?Ref@ObjectWrap@Nan@@MAEXXZ 10004950 f i device.obj
 0001:00003970       ?Unref@ObjectWrap@Nan@@MAEXXZ 10004970 f i device.obj
 0001:000039a0       ?WeakCallback@ObjectWrap@Nan@@CAXABV?$WeakCallbackInfo@VObjectWrap@Nan@@@v8@@@Z 100049a0 f i device.obj
 0001:000039d0       ??_EObjectWrap@Nan@@UAEPAXI@Z 100049d0 f i * CIL library *:* CIL module *
 0001:000039d0       ??_GObjectWrap@Nan@@UAEPAXI@Z 100049d0 f i device.obj
 0001:00003a50       ?ref@Device@@QAEXXZ        10004a50 f i device.obj
 0001:00003a80       ??0Device@@IAE@PAUlibusb_device@@@Z 10004a80 f   device.obj
 0001:00003b40       ??_GDevice@@UAEPAXI@Z      10004b40 f i device.obj
 0001:00003b40       ??_EDevice@@UAEPAXI@Z      10004b40 f i * CIL library *:* CIL module *
 0001:00003b60       ??1Device@@UAE@XZ          10004b60 f   device.obj
 0001:00003c10       ?DeviceWeakCallback@@YAXABV?$WeakCallbackInfo@Ulibusb_device@@@Nan@@@Z 10004c10 f   device.obj
 0001:00003c50       ?get@Device@@SA?AV?$Local@VObject@v8@@@v8@@PAUlibusb_device@@@Z 10004c50 f   device.obj
 0001:000044e0       ?Device_GetConfigDescriptor@@YAXABV?$FunctionCallbackInfo@VValue@v8@@@Nan@@@Z 100054e0 f   device.obj
 0001:00005430       ?Device_Open@@YAXABV?$FunctionCallbackInfo@VValue@v8@@@Nan@@@Z 10006430 f   device.obj
 0001:00005540       ?Device_Close@@YAXABV?$FunctionCallbackInfo@VValue@v8@@@Nan@@@Z 10006540 f   device.obj
 0001:00005630       ?submit@Req@@QAEXPAUDevice@@V?$Local@VFunction@v8@@@v8@@P6AXPAUuv_work_s@@@Z3@Z 10006630 f i device.obj
 0001:000056c0       ?default_after@Req@@SAXPAUuv_work_s@@@Z 100066c0 f i device.obj
 0001:00005850       ??1TryCatch@Nan@@QAE@XZ    10006850 f i device.obj
 0001:00005860       ?begin@Device_Reset@@SAXABV?$FunctionCallbackInfo@VValue@v8@@@Nan@@@Z 10006860 f i device.obj
 0001:000059a0       ?backend@Device_Reset@@SAXPAUuv_work_s@@@Z 100069a0 f i device.obj
 0001:000059f0       ?IsKernelDriverActive@@YAXABV?$FunctionCallbackInfo@VValue@v8@@@Nan@@@Z 100069f0 f   device.obj
 0001:00005b60       ?DetachKernelDriver@@YAXABV?$FunctionCallbackInfo@VValue@v8@@@Nan@@@Z 10006b60 f   device.obj
 0001:00005cd0       ?AttachKernelDriver@@YAXABV?$FunctionCallbackInfo@VValue@v8@@@Nan@@@Z 10006cd0 f   device.obj
 0001:00005e40       ?Device_ClaimInterface@@YAXABV?$FunctionCallbackInfo@VValue@v8@@@Nan@@@Z 10006e40 f   device.obj
 0001:00005fb0       ?begin@Device_ReleaseInterface@@SAXABV?$FunctionCallbackInfo@VValue@v8@@@Nan@@@Z 10006fb0 f i device.obj
 0001:00006160       ?backend@Device_ReleaseInterface@@SAXPAUuv_work_s@@@Z 10007160 f i device.obj
 0001:00006180       ?begin@Device_SetInterface@@SAXABV?$FunctionCallbackInfo@VValue@v8@@@Nan@@@Z 10007180 f i device.obj
 0001:00006390       ?backend@Device_SetInterface@@SAXPAUuv_work_s@@@Z 10007390 f i device.obj
 0001:000063b0       ?begin@Device_SetConfiguration@@SAXABV?$FunctionCallbackInfo@VValue@v8@@@Nan@@@Z 100073b0 f i device.obj
 0001:00006560       ?backend@Device_SetConfiguration@@SAXPAUuv_work_s@@@Z 10007560 f i device.obj
 0001:000065a0       ?Init@Device@@SAXV?$Local@VObject@v8@@@v8@@@Z 100075a0 f   device.obj
 0001:00006780       ?erase@?$_Tree@V?$_Tmap_traits@PAUlibusb_device@@V?$Persistent@VObject@v8@@V?$NonCopyablePersistentTraits@VObject@v8@@@2@@Nan@@U?$less@PAUlibusb_device@@@std@@V?$allocator@U?$pair@QAUlibusb_device@@V?$Persistent@VObject@v8@@V?$NonCopyablePersistentTraits@VObject@v8@@@2@@Nan@@@std@@@5@$0A@@std@@@std@@QAE?AV?$_Tree_iterator@V?$_Tree_val@U?$_Tree_simple_types@U?$pair@QAUlibusb_device@@V?$Persistent@VObject@v8@@V?$NonCopyablePersistentTraits@VObject@v8@@@2@@Nan@@@std@@@std@@@std@@@2@V?$_Tree_const_iterator@V?$_Tree_val@U?$_Tree_simple_types@U?$pair@QAUlibusb_device@@V?$Persistent@VObject@v8@@V?$NonCopyablePersistentTraits@VObject@v8@@@2@@Nan@@@std@@@std@@@std@@@2@0@Z 10007780 f i device.obj
 0001:00006820       ?clear@?$_Tree@V?$_Tmap_traits@PAUlibusb_device@@V?$Persistent@VObject@v8@@V?$NonCopyablePersistentTraits@VObject@v8@@@2@@Nan@@U?$less@PAUlibusb_device@@@std@@V?$allocator@U?$pair@QAUlibusb_device@@V?$Persistent@VObject@v8@@V?$NonCopyablePersistentTraits@VObject@v8@@@2@@Nan@@@std@@@5@$0A@@std@@@std@@QAEXXZ 10007820 f i device.obj
 0001:000068c0       ?erase@?$_Tree@V?$_Tmap_traits@PAUlibusb_device@@V?$Persistent@VObject@v8@@V?$NonCopyablePersistentTraits@VObject@v8@@@2@@Nan@@U?$less@PAUlibusb_device@@@std@@V?$allocator@U?$pair@QAUlibusb_device@@V?$Persistent@VObject@v8@@V?$NonCopyablePersistentTraits@VObject@v8@@@2@@Nan@@@std@@@5@$0A@@std@@@std@@QAE?AV?$_Tree_iterator@V?$_Tree_val@U?$_Tree_simple_types@U?$pair@QAUlibusb_device@@V?$Persistent@VObject@v8@@V?$NonCopyablePersistentTraits@VObject@v8@@@2@@Nan@@@std@@@std@@@std@@@2@V?$_Tree_const_iterator@V?$_Tree_val@U?$_Tree_simple_types@U?$pair@QAUlibusb_device@@V?$Persistent@VObject@v8@@V?$NonCopyablePersistentTraits@VObject@v8@@@2@@Nan@@@std@@@std@@@std@@@2@@Z 100078c0 f i device.obj
 0001:00006ba0       ?_Rrotate@?$_Tree@V?$_Tmap_traits@PAUlibusb_device@@V?$Persistent@VObject@v8@@V?$NonCopyablePersistentTraits@VObject@v8@@@2@@Nan@@U?$less@PAUlibusb_device@@@std@@V?$allocator@U?$pair@QAUlibusb_device@@V?$Persistent@VObject@v8@@V?$NonCopyablePersistentTraits@VObject@v8@@@2@@Nan@@@std@@@5@$0A@@std@@@std@@IAEXPAU?$_Tree_node@U?$pair@QAUlibusb_device@@V?$Persistent@VObject@v8@@V?$NonCopyablePersistentTraits@VObject@v8@@@2@@Nan@@@std@@PAX@2@@Z 10007ba0 f i device.obj
 0001:00006c00       ?_Lrotate@?$_Tree@V?$_Tmap_traits@PAUlibusb_device@@V?$Persistent@VObject@v8@@V?$NonCopyablePersistentTraits@VObject@v8@@@2@@Nan@@U?$less@PAUlibusb_device@@@std@@V?$allocator@U?$pair@QAUlibusb_device@@V?$Persistent@VObject@v8@@V?$NonCopyablePersistentTraits@VObject@v8@@@2@@Nan@@@std@@@5@$0A@@std@@@std@@IAEXPAU?$_Tree_node@U?$pair@QAUlibusb_device@@V?$Persistent@VObject@v8@@V?$NonCopyablePersistentTraits@VObject@v8@@@2@@Nan@@@std@@PAX@2@@Z 10007c00 f i device.obj
 0001:00006c50       ?_Erase@?$_Tree@V?$_Tmap_traits@PAUlibusb_device@@V?$Persistent@VObject@v8@@V?$NonCopyablePersistentTraits@VObject@v8@@@2@@Nan@@U?$less@PAUlibusb_device@@@std@@V?$allocator@U?$pair@QAUlibusb_device@@V?$Persistent@VObject@v8@@V?$NonCopyablePersistentTraits@VObject@v8@@@2@@Nan@@@std@@@5@$0A@@std@@@std@@IAEXPAU?$_Tree_node@U?$pair@QAUlibusb_device@@V?$Persistent@VObject@v8@@V?$NonCopyablePersistentTraits@VObject@v8@@@2@@Nan@@@std@@PAX@2@@Z 10007c50 f i device.obj
 0001:00006cc0       ??$New@VUint32@v8@@I@Nan@@YA?AV?$Local@VUint32@v8@@@v8@@I@Z 10007cc0 f i device.obj
 0001:00006d20       ??$_Eqrange@PAUlibusb_device@@@?$_Tree@V?$_Tmap_traits@PAUlibusb_device@@V?$Persistent@VObject@v8@@V?$NonCopyablePersistentTraits@VObject@v8@@@2@@Nan@@U?$less@PAUlibusb_device@@@std@@V?$allocator@U?$pair@QAUlibusb_device@@V?$Persistent@VObject@v8@@V?$NonCopyablePersistentTraits@VObject@v8@@@2@@Nan@@@std@@@5@$0A@@std@@@std@@IBE?AU?$pair@V?$_Tree_const_iterator@V?$_Tree_val@U?$_Tree_simple_types@U?$pair@QAUlibusb_device@@V?$Persistent@VObject@v8@@V?$NonCopyablePersistentTraits@VObject@v8@@@2@@Nan@@@std@@@std@@@std@@@std@@V12@@1@ABQAUlibusb_device@@@Z 10007d20 f i device.obj
 0001:00006da0       ??$invokeparameter@$00@?$WeakCallbackInfo@Ulibusb_device@@@Nan@@CAXABV?$WeakCallbackInfo@V?$WeakCallbackInfo@Ulibusb_device@@@Nan@@@v8@@@Z 10007da0 f i device.obj
 0001:00006e10       ??0?$_Wrap_alloc@V?$allocator@U?$_Tree_node@U?$pair@QAUlibusb_device@@V?$Persistent@VObject@v8@@V?$NonCopyablePersistentTraits@VObject@v8@@@2@@Nan@@@std@@PAX@std@@@std@@@std@@QAE@XZ 10007e10 f i device.obj
 0001:00006e20       ??$_Buynode@U?$pair@PAUlibusb_device@@V?$Local@VObject@v8@@@v8@@@std@@@?$_Tree_comp_alloc@V?$_Tmap_traits@PAUlibusb_device@@V?$Persistent@VObject@v8@@V?$NonCopyablePersistentTraits@VObject@v8@@@2@@Nan@@U?$less@PAUlibusb_device@@@std@@V?$allocator@U?$pair@QAUlibusb_device@@V?$Persistent@VObject@v8@@V?$NonCopyablePersistentTraits@VObject@v8@@@2@@Nan@@@std@@@5@$0A@@std@@@std@@QAEPAU?$_Tree_node@U?$pair@QAUlibusb_device@@V?$Persistent@VObject@v8@@V?$NonCopyablePersistentTraits@VObject@v8@@@2@@Nan@@@std@@PAX@1@$$QAU?$pair@PAUlibusb_device@@V?$Local@VObject@v8@@@v8@@@1@@Z 10007e20 f i device.obj
 0001:00006ed0       ??$_Insert_nohint@AAU?$pair@QAUlibusb_device@@V?$Persistent@VObject@v8@@V?$NonCopyablePersistentTraits@VObject@v8@@@2@@Nan@@@std@@PAU?$_Tree_node@U?$pair@QAUlibusb_device@@V?$Persistent@VObject@v8@@V?$NonCopyablePersistentTraits@VObject@v8@@@2@@Nan@@@std@@PAX@2@@?$_Tree@V?$_Tmap_traits@PAUlibusb_device@@V?$Persistent@VObject@v8@@V?$NonCopyablePersistentTraits@VObject@v8@@@2@@Nan@@U?$less@PAUlibusb_device@@@std@@V?$allocator@U?$pair@QAUlibusb_device@@V?$Persistent@VObject@v8@@V?$NonCopyablePersistentTraits@VObject@v8@@@2@@Nan@@@std@@@5@$0A@@std@@@std@@IAE?AU?$pair@V?$_Tree_iterator@V?$_Tree_val@U?$_Tree_simple_types@U?$pair@QAUlibusb_device@@V?$Persistent@VObject@v8@@V?$NonCopyablePersistentTraits@VObject@v8@@@2@@Nan@@@std@@@std@@@std@@@std@@_N@1@_NAAU?$pair@QAUlibusb_device@@V?$Persistent@VObject@v8@@V?$NonCopyablePersistentTraits@VObject@v8@@@2@@Nan@@@1@PAU?$_Tree_node@U?$pair@QAUlibusb_device@@V?$Persistent@VObject@v8@@V?$NonCopyablePersistentTraits@VObject@v8@@@2@@Nan@@@std@@PAX@1@@Z 10007ed0 f i device.obj
 0001:00006fc0       ??$invokeparameter@$0A@@?$WeakCallbackInfo@Ulibusb_device@@@Nan@@CAXABV?$WeakCallbackInfo@V?$WeakCallbackInfo@Ulibusb_device@@@Nan@@@v8@@@Z 10007fc0 f i device.obj
 0001:00007010       ??F?$_Tree_unchecked_const_iterator@V?$_Tree_val@U?$_Tree_simple_types@U?$pair@QAUlibusb_device@@V?$Persistent@VObject@v8@@V?$NonCopyablePersistentTraits@VObject@v8@@@2@@Nan@@@std@@@std@@@std@@U_Iterator_base0@2@@std@@QAEAAV01@XZ 10008010 f i device.obj
 0001:00007070       ??$_Insert_at@AAU?$pair@QAUlibusb_device@@V?$Persistent@VObject@v8@@V?$NonCopyablePersistentTraits@VObject@v8@@@2@@Nan@@@std@@PAU?$_Tree_node@U?$pair@QAUlibusb_device@@V?$Persistent@VObject@v8@@V?$NonCopyablePersistentTraits@VObject@v8@@@2@@Nan@@@std@@PAX@2@@?$_Tree@V?$_Tmap_traits@PAUlibusb_device@@V?$Persistent@VObject@v8@@V?$NonCopyablePersistentTraits@VObject@v8@@@2@@Nan@@U?$less@PAUlibusb_device@@@std@@V?$allocator@U?$pair@QAUlibusb_device@@V?$Persistent@VObject@v8@@V?$NonCopyablePersistentTraits@VObject@v8@@@2@@Nan@@@std@@@5@$0A@@std@@@std@@IAE?AV?$_Tree_iterator@V?$_Tree_val@U?$_Tree_simple_types@U?$pair@QAUlibusb_device@@V?$Persistent@VObject@v8@@V?$NonCopyablePersistentTraits@VObject@v8@@@2@@Nan@@@std@@@std@@@std@@@1@_NPAU?$_Tree_node@U?$pair@QAUlibusb_device@@V?$Persistent@VObject@v8@@V?$NonCopyablePersistentTraits@VObject@v8@@@2@@Nan@@@std@@PAX@1@AAU?$pair@QAUlibusb_device@@V?$Persistent@VObject@v8@@V?$NonCopyablePersistentTraits@VObject@v8@@@2@@Nan@@@1@1@Z 10008070 f i device.obj
 0001:000072a0       ??0Transfer@@QAE@XZ        100082a0 f   transfer.obj
 0001:00007380       ??_GTransfer@@UAEPAXI@Z    10008380 f i transfer.obj
 0001:00007380       ??_ETransfer@@UAEPAXI@Z    10008380 f i * CIL library *:* CIL module *
 0001:000073a0       ??1Transfer@@UAE@XZ        100083a0 f   transfer.obj
 0001:00007490       ?Transfer_constructor@@YAXABV?$FunctionCallbackInfo@VValue@v8@@@Nan@@@Z 10008490 f   transfer.obj
 0001:000077a0       ?Transfer_Submit@@YAXABV?$FunctionCallbackInfo@VValue@v8@@@Nan@@@Z 100087a0 f   transfer.obj
 0001:00007990       _usbCompletionCb@4         10008990 f   transfer.obj
 0001:000079e0       ?handleCompletion@@YAXPAUTransfer@@@Z 100089e0 f   transfer.obj
 0001:00007c10       ?Transfer_Cancel@@YAXABV?$FunctionCallbackInfo@VValue@v8@@@Nan@@@Z 10008c10 f   transfer.obj
 0001:00007d20       ?Init@Transfer@@SAXV?$Local@VObject@v8@@@v8@@@Z 10008d20 f   transfer.obj
 0001:00007e10       ??0?$UVQueue@PAUTransfer@@@@QAE@P6AXPAUTransfer@@@ZH@Z 10008e10 f i transfer.obj
 0001:00007ee0       ?internal_callback@?$UVQueue@PAUTransfer@@@@CAXPAUuv_async_s@@@Z 10008ee0 f i transfer.obj
 0001:00007f70       ?push_back@?$deque@PAUTransfer@@V?$allocator@PAUTransfer@@@std@@@std@@QAEXABQAUTransfer@@@Z 10008f70 f i transfer.obj
 0001:00008000       ?_Growmap@?$deque@PAUTransfer@@V?$allocator@PAUTransfer@@@std@@@std@@IAEXI@Z 10009000 f i transfer.obj
 0001:00008180       ___local_stdio_printf_options 10009180 f i libusb:core.obj
 0001:00008190       __snprintf                 10009190 f i libusb:core.obj
 0001:000081d0       _discovered_devs_append    100091d0 f   libusb:core.obj
 0001:000082d0       _usbi_alloc_device         100092d0 f   libusb:core.obj
 0001:00008340       _usbi_connect_device       10009340 f   libusb:core.obj
 0001:00008410       _usbi_disconnect_device    10009410 f   libusb:core.obj
 0001:00008520       _usbi_sanitize_device      10009520 f   libusb:core.obj
 0001:00008580       _usbi_get_device_by_session_id 10009580 f   libusb:core.obj
 0001:00008660       _libusb_get_device_list@8  10009660 f   libusb:core.obj
 0001:00008830       _libusb_get_port_numbers@12 10009830 f   libusb:core.obj
 0001:000088a0       _libusb_ref_device@4       100098a0 f   libusb:core.obj
 0001:000088f0       _libusb_unref_device@4     100098f0 f   libusb:core.obj
 0001:000089c0       _usbi_fd_notification      100099c0 f   libusb:core.obj
 0001:00008b60       _libusb_open@8             10009b60 f   libusb:core.obj
 0001:00008f20       _libusb_close@4            10009f20 f   libusb:core.obj
 0001:000090f0       _libusb_claim_interface@8  1000a0f0 f   libusb:core.obj
 0001:00009190       _libusb_release_interface@8 1000a190 f   libusb:core.obj
 0001:00009230       _libusb_set_interface_alt_setting@12 1000a230 f   libusb:core.obj
 0001:000092f0       _libusb_kernel_driver_active@8 1000a2f0 f   libusb:core.obj
 0001:00009340       _libusb_detach_kernel_driver@8 1000a340 f   libusb:core.obj
 0001:00009390       _libusb_attach_kernel_driver@8 1000a390 f   libusb:core.obj
 0001:000093e0       _libusb_init@4             1000a3e0 f   libusb:core.obj
 0001:000097e0       _usbi_gettimeofday         1000a7e0 f   libusb:core.obj
 0001:00009840       _usbi_log_v                1000a840 f   libusb:core.obj
 0001:00009a80       _usbi_log                  1000aa80 f   libusb:core.obj
 0001:00009aa0       _libusb_error_name@4       1000aaa0 f   libusb:core.obj
 0001:00009c00       _usbi_hotplug_match        1000ac00 f   libusb:hotplug.obj
 0001:00009d90       _libusb_hotplug_register_callback@36 1000ad90 f   libusb:hotplug.obj
 0001:00009e40       _libusb_hotplug_deregister_callback@8 1000ae40 f   libusb:hotplug.obj
 0001:00009f10       _usbi_io_init              1000af10 f   libusb:io.obj
 0001:0000a370       _libusb_free_transfer@4    1000b370 f   libusb:io.obj
 0001:0000a3d0       _libusb_submit_transfer@4  1000b3d0 f   libusb:io.obj
 0001:0000a560       _libusb_cancel_transfer@4  1000b560 f   libusb:io.obj
 0001:0000a640       _usbi_handle_transfer_completion 1000b640 f   libusb:io.obj
 0001:0000a750       _libusb_try_lock_events@4  1000b750 f   libusb:io.obj
 0001:0000a830       _libusb_unlock_events@4    1000b830 f   libusb:io.obj
 0001:0000a8d0       _libusb_event_handler_active@4 1000b8d0 f   libusb:io.obj
 0001:0000a960       _libusb_wait_for_event@8   1000b960 f   libusb:io.obj
 0001:0000af40       _libusb_handle_events_timeout_completed@12 1000bf40 f   libusb:io.obj
 0001:0000b120       _libusb_get_next_timeout@8 1000c120 f   libusb:io.obj
 0001:0000b310       _usbi_add_pollfd           1000c310 f   libusb:io.obj
 0001:0000b3e0       _usbi_remove_pollfd        1000c3e0 f   libusb:io.obj
 0001:0000b510       _usbi_parse_descriptor     1000c510 f   libusb:descriptor.obj
 0001:0000bfd0       _usbi_device_cache_descriptor 1000cfd0 f   libusb:descriptor.obj
 0001:0000c070       _libusb_get_active_config_descriptor@8 1000d070 f   libusb:descriptor.obj
 0001:0000c180       _libusb_get_config_descriptor@12 1000d180 f   libusb:descriptor.obj
 0001:0000c2d0       _usbi_mutex_init           1000d2d0 f   libusb:threads_windows.obj
 0001:0000c310       _usbi_mutex_destroy        1000d310 f   libusb:threads_windows.obj
 0001:0000c340       _usbi_mutex_lock           1000d340 f   libusb:threads_windows.obj
 0001:0000c370       _usbi_mutex_unlock         1000d370 f   libusb:threads_windows.obj
 0001:0000c3b0       _usbi_mutex_static_lock    1000d3b0 f   libusb:threads_windows.obj
 0001:0000c400       _usbi_mutex_static_unlock  1000d400 f   libusb:threads_windows.obj
 0001:0000c420       _usbi_cond_destroy         1000d420 f   libusb:threads_windows.obj
 0001:0000c4a0       _usbi_cond_broadcast       1000d4a0 f   libusb:threads_windows.obj
 0001:0000c6a0       _usbi_cond_timedwait       1000d6a0 f   libusb:threads_windows.obj
 0001:0000c840       _init_polling              1000d840 f   libusb:poll_windows.obj
 0001:0000c9a0       _exit_polling              1000d9a0 f   libusb:poll_windows.obj
 0001:0000caf0       _usbi_pipe                 1000daf0 f   libusb:poll_windows.obj
 0001:0000cc00       _usbi_create_fd            1000dc00 f   libusb:poll_windows.obj
 0001:0000cf40       _usbi_free_fd              1000df40 f   libusb:poll_windows.obj
 0001:0000cfa0       _handle_to_winfd           1000dfa0 f   libusb:poll_windows.obj
 0001:0000d160       _usbi_poll                 1000e160 f   libusb:poll_windows.obj
 0001:0000d460       _usbi_close                1000e460 f   libusb:poll_windows.obj
 0001:0000d500       _usbi_write                1000e500 f   libusb:poll_windows.obj
 0001:0000d610       _usbi_read                 1000e610 f   libusb:poll_windows.obj
 0001:0000d780       ___local_stdio_scanf_options 1000e780 f i libusb:windows_usb.obj
 0001:0000d790       _sprintf                   1000e790 f i libusb:windows_usb.obj
 0001:0000d7d0       _sscanf                    1000e7d0 f i libusb:windows_usb.obj
 0001:0000fd00       _message_callback_handle_device_change@16 10010d00 f   libusb:windows_usb.obj
 0001:00010100       _messaging_callback@16     10011100 f   libusb:windows_usb.obj
 0001:00010130       _windows_hotplug_threaded@4 10011130 f   libusb:windows_usb.obj
 0001:00010340       _windows_scan_devices      10011340 f   libusb:windows_usb.obj
 0001:00012dd0       _windows_clock_gettime_threaded@4 10013dd0 f   libusb:windows_usb.obj
 0001:00016e60       _libusb_control_transfer@32 10017e60 f   libusb:sync.obj
 0001:00017050       ??0bad_alloc@std@@QAE@ABV01@@Z 10018050 f i libcpmt:xthrow.obj
 0001:0001706b       ??0bad_alloc@std@@QAE@XZ   1001806b f i libcpmt:xthrow.obj
 0001:00017083       ??0exception@std@@QAE@ABV01@@Z 10018083 f i libcpmt:xthrow.obj
 0001:000170af       ??0exception@std@@QAE@QBD@Z 100180af f i libcpmt:xthrow.obj
 0001:000170e6       ??0length_error@std@@QAE@ABV01@@Z 100180e6 f i libcpmt:xthrow.obj
 0001:00017101       ??0length_error@std@@QAE@PBD@Z 10018101 f i libcpmt:xthrow.obj
 0001:00017122       ??0logic_error@std@@QAE@ABV01@@Z 10018122 f i libcpmt:xthrow.obj
 0001:0001713d       ??_Elength_error@std@@UAEPAXI@Z 1001813d f i libcpmt:xthrow.obj
 0001:0001713d       ??_Gbad_alloc@std@@UAEPAXI@Z 1001813d f i libcpmt:xthrow.obj
 0001:0001713d       ??_Gbad_exception@std@@UAEPAXI@Z 1001813d f i libvcruntime:frame.obj
 0001:0001713d       ??_Glogic_error@std@@UAEPAXI@Z 1001813d f i libcpmt:xthrow.obj
 0001:0001713d       ??_Gexception@std@@UAEPAXI@Z 1001813d f i libcpmt:xthrow.obj
 0001:0001713d       ??_Gbad_array_new_length@std@@UAEPAXI@Z 1001813d f i LIBCMT:throw_bad_alloc.obj
 0001:0001713d       ??_Elogic_error@std@@UAEPAXI@Z 1001813d f i libcpmt:xthrow.obj
 0001:0001713d       ??_Eexception@std@@UAEPAXI@Z 1001813d f i libcpmt:xthrow.obj
 0001:0001713d       ??_Ebad_alloc@std@@UAEPAXI@Z 1001813d f i libcpmt:xthrow.obj
 0001:0001713d       ??_Ebad_array_new_length@std@@UAEPAXI@Z 1001813d f i LIBCMT:throw_bad_alloc.obj
 0001:0001713d       ??_Glength_error@std@@UAEPAXI@Z 1001813d f i libcpmt:xthrow.obj
 0001:0001713d       ??_Ebad_exception@std@@UAEPAXI@Z 1001813d f i libvcruntime:frame.obj
 0001:0001716a       ?_Xbad_alloc@std@@YAXXZ    1001816a f   libcpmt:xthrow.obj
 0001:0001716a       ?__scrt_throw_std_bad_alloc@@YAXXZ 1001816a f   LIBCMT:throw_bad_alloc.obj
 0001:00017187       ?_Xlength_error@std@@YAXPBD@Z 10018187 f   libcpmt:xthrow.obj
 0001:000171a7       ?what@exception@std@@UBEPBDXZ 100181a7 f i libcpmt:xthrow.obj
 0001:000171b4       @__security_check_cookie@4 100181b4 f   LIBCMT:_secchk_.obj
 0001:000171c5       ??2@YAPAXI@Z               100181c5 f   LIBCMT:new_scalar.obj
 0001:000171f8       ??$__crt_fast_encode_pointer@PAX@@YAPAXQAX@Z 100181f8 f i libvcruntime:winapi_downlevel.obj
 0001:000171f8       ??$__crt_fast_encode_pointer@PAP6AXXZ@@YAPAP6AXXZQAP6AXXZ@Z 100181f8 f i LIBCMT:utility.obj
 0001:00017259       ___scrt_acquire_startup_lock 10018259 f   LIBCMT:utility.obj
 0001:0001728e       ___scrt_dllmain_after_initialize_c 1001828e f   LIBCMT:utility.obj
 0001:000172b9       ___scrt_dllmain_before_initialize_c 100182b9 f   LIBCMT:utility.obj
 0001:000172c7       ___scrt_dllmain_crt_thread_attach 100182c7 f   LIBCMT:utility.obj
 0001:000172e6       ___scrt_dllmain_crt_thread_detach 100182e6 f   LIBCMT:utility.obj
 0001:000172f3       ___scrt_dllmain_exception_filter 100182f3 f   LIBCMT:utility.obj
 0001:00017326       ___scrt_dllmain_uninitialize_c 10018326 f   LIBCMT:utility.obj
 0001:00017349       ___scrt_dllmain_uninitialize_critical 10018349 f   LIBCMT:utility.obj
 0001:00017356       ___scrt_initialize_crt     10018356 f   LIBCMT:utility.obj
 0001:0001738f       ___scrt_initialize_onexit_tables 1001838f f   LIBCMT:utility.obj
 0001:00017426       ___scrt_is_nonwritable_in_current_image 10018426 f   LIBCMT:utility.obj
 0001:000174b0       ___scrt_release_startup_lock 100184b0 f   LIBCMT:utility.obj
 0001:000174cd       ___scrt_uninitialize_crt   100184cd f   LIBCMT:utility.obj
 0001:000174f5       __onexit                   100184f5 f   LIBCMT:utility.obj
 0001:00017530       _atexit                    10018530 f   LIBCMT:utility.obj
 0001:00017545       ??3@YAXPAX@Z               10018545 f   LIBCMT:delete_scalar.obj
 0001:0001754a       ??3@YAXPAXI@Z              1001854a f   LIBCMT:delete_scalar_size.obj
 0001:00017860       __DllMainCRTStartup@12     10018860 f   LIBCMT:dll_dllmain.obj
 0001:00017883       ___raise_securityfailure   10018883 f   LIBCMT:gs_report.obj
 0001:000178ab       ___report_gsfailure        100188ab f   LIBCMT:gs_report.obj
 0001:000179a6       ___report_rangecheckfailure 100189a6 f   LIBCMT:gs_report.obj
 0001:000179b2       ___report_securityfailure  100189b2 f   LIBCMT:gs_report.obj
 0001:00017a82       ??_Gtype_info@@UAEPAXI@Z   10018a82 f i LIBCMT:std_type_info_static.obj
 0001:00017a82       ??_Etype_info@@UAEPAXI@Z   10018a82 f i LIBCMT:std_type_info_static.obj
 0001:00017aa5       ??0bad_array_new_length@std@@QAE@ABV01@@Z 10018aa5 f i LIBCMT:throw_bad_alloc.obj
 0001:00017ac0       ??0bad_array_new_length@std@@QAE@XZ 10018ac0 f i LIBCMT:throw_bad_alloc.obj
 0001:00017ad8       ??1bad_alloc@std@@UAE@XZ   10018ad8 f i libcpmt:xthrow.obj
 0001:00017ad8       ??1bad_array_new_length@std@@UAE@XZ 10018ad8 f i LIBCMT:throw_bad_alloc.obj
 0001:00017ad8       ??1bad_exception@std@@UAE@XZ 10018ad8 f i libvcruntime:frame.obj
 0001:00017ad8       ??1length_error@std@@UAE@XZ 10018ad8 f i libcpmt:xthrow.obj
 0001:00017ae9       ?__scrt_throw_std_bad_array_new_length@@YAXXZ 10018ae9 f   LIBCMT:throw_bad_alloc.obj
 0001:00017b06       ___isa_available_init      10018b06 f   LIBCMT:_cpu_disp_.obj
 0001:00017ca0       __get_startup_argv_mode    10018ca0 f   LIBCMT:argv_mode.obj
 0001:00017ca4       ___scrt_is_ucrt_dll_in_use 10018ca4 f   LIBCMT:ucrt_detection.obj
 0001:00017cb0       ___scrt_fastfail           10018cb0 f   LIBCMT:utility_desktop.obj
 0001:00017dcb       __crt_debugger_hook        10018dcb f   LIBCMT:utility_desktop.obj
 0001:00017dd3       @_guard_check_icall@4      10018dd3 f i LIBCMT:checkcfg.obj
 0001:00017de0       __SEH_prolog4              10018de0 f   LIBCMT:_sehprolg4_.obj
 0001:00017e26       __SEH_epilog4              10018e26 f   LIBCMT:_sehprolg4_.obj
 0001:00017e3b       ___security_init_cookie    10018e3b f   LIBCMT:gs_support.obj
 0001:00017ed7       _DllMain@12                10018ed7 f   LIBCMT:dll_dllmain_stub.obj
 0001:00017edd       ?__scrt_initialize_type_info@@YAXXZ 10018edd f   LIBCMT:tncleanup.obj
 0001:00017ee9       ?__scrt_uninitialize_type_info@@YAXXZ 10018ee9 f   LIBCMT:tncleanup.obj
 0001:00017ef5       ___scrt_initialize_default_local_stdio_options 10018ef5 f   LIBCMT:default_local_stdio_options.obj
 0001:00017f12       ___scrt_get_dyn_tls_init_callback 10018f12 f   LIBCMT:dyn_tls_init.obj
 0001:00017f18       __RTC_Initialize           10018f18 f   LIBCMT:_initsect_.obj
 0001:00017f43       __RTC_Terminate            10018f43 f   LIBCMT:_initsect_.obj
 0001:00017f70       _memmove                   10018f70 f   libvcruntime:memmove.obj
 0001:000184e4       ___DestructExceptionObject 100194e4 f   libvcruntime:frame.obj
 0001:00018578       ??0bad_exception@std@@QAE@ABV01@@Z 10019578 f i libvcruntime:frame.obj
 0001:00018593       ??0bad_exception@std@@QAE@XZ 10019593 f i libvcruntime:frame.obj
 0001:00018dc4       ?_CallMemberFunction2@@YGXQAX00H@Z 10019dc4 f i libvcruntime:frame.obj
 0001:00018dc4       ?_CallMemberFunction0@@YGXQAX0@Z 10019dc4 f i libvcruntime:frame.obj
 0001:00018dc4       ?_CallMemberFunction1@@YGXQAX00@Z 10019dc4 f i libvcruntime:frame.obj
 0001:00018dcb       ___AdjustPointer           10019dcb f   libvcruntime:frame.obj
 0001:00018df0       ___BuildCatchObject        10019df0 f   libvcruntime:frame.obj
 0001:00018e7f       ___BuildCatchObjectHelper  10019e7f f   libvcruntime:frame.obj
 0001:00018fad       ___FrameUnwindFilter       10019fad f   libvcruntime:frame.obj
 0001:00018ff2       ___FrameUnwindToState      10019ff2 f   libvcruntime:frame.obj
 0001:000190ba       ___InternalCxxFrameHandler 1001a0ba f   libvcruntime:frame.obj
 0001:000191b6       ___TypeMatch               1001a1b6 f   libvcruntime:frame.obj
 0001:00019244       ___std_terminate           1001a244 f   libvcruntime:frame.obj
 0001:00019250       _strchr                    1001a250 f   libvcruntime:strchr.obj
 0001:000192be       ___from_strstr_to_strchr   1001a2be     libvcruntime:strchr.obj
 0001:0001937b       ___std_exception_copy      1001a37b f   libvcruntime:std_exception.obj
 0001:000193de       ___std_exception_destroy   1001a3de f   libvcruntime:std_exception.obj
 0001:000193fd       __CxxThrowException@8      1001a3fd f   libvcruntime:throw.obj
 0001:0001946b       ___vcrt_initialize         1001a46b f   libvcruntime:initialization.obj
 0001:00019494       ___vcrt_thread_attach      1001a494 f   libvcruntime:initialization.obj
 0001:0001949f       ___vcrt_thread_detach      1001a49f f   libvcruntime:initialization.obj
 0001:000194aa       ___vcrt_uninitialize       1001a4aa f   libvcruntime:initialization.obj
 0001:000194c9       ___vcrt_uninitialize_critical 1001a4c9 f   libvcruntime:initialization.obj
 0001:00019520       __except_handler4          1001a520 f   libvcruntime:_chandler4_.obj
 0001:00019690       _memset                    1001a690 f   libvcruntime:memset.obj
 0001:000197ea       ___std_type_info_compare   1001a7ea f   libvcruntime:std_type_info.obj
 0001:00019826       ___std_type_info_destroy_list 1001a826 f   libvcruntime:std_type_info.obj
 0001:00019849       _unexpected                1001a849 f   libvcruntime:unexpected.obj
 0001:00019865       ___vcrt_freefls@4          1001a865 f   libvcruntime:per_thread_data.obj
 0001:00019881       ___vcrt_freeptd            1001a881 f   libvcruntime:per_thread_data.obj
 0001:000198b7       ___vcrt_getptd             1001a8b7 f   libvcruntime:per_thread_data.obj
 0001:000198c5       ___vcrt_getptd_noexit      1001a8c5 f   libvcruntime:per_thread_data.obj
 0001:00019957       ___vcrt_initialize_ptd     1001a957 f   libvcruntime:per_thread_data.obj
 0001:0001998a       ___vcrt_uninitialize_ptd   1001a98a f   libvcruntime:per_thread_data.obj
 0001:000199b0       __CallSettingFrame@12      1001a9b0 f   libvcruntime:lowhelpr.obj
 0001:000199d7       __NLG_Return               1001a9d7     libvcruntime:lowhelpr.obj
 0001:000199fc       ?_CallCatchBlock2@@YAPAXPAUEHRegistrationNode@@PBU_s_FuncInfo@@PAXHK@Z 1001a9fc f   libvcruntime:trnsctrl.obj
 0001:00019a5c       ?_CallSETranslator@@YAHPAUEHExceptionRecord@@PAUEHRegistrationNode@@PAX2PBU_s_FuncInfo@@H1@Z 1001aa5c f   libvcruntime:trnsctrl.obj
 0001:00019b39       ?_GetRangeOfTrysToCheck@@YAPBU_s_TryBlockMapEntry@@PBU_s_FuncInfo@@HHPAI1@Z 1001ab39 f   libvcruntime:trnsctrl.obj
 0001:00019bb1       ?_JumpToContinuation@@YGXPAXPAUEHRegistrationNode@@@Z 1001abb1 f   libvcruntime:trnsctrl.obj
 0001:00019be3       ?_UnwindNestedFrames@@YGXPAUEHRegistrationNode@@PAUEHExceptionRecord@@@Z 1001abe3 f   libvcruntime:trnsctrl.obj
 0001:00019c38       __CatchGuardHandler        1001ac38 f   libvcruntime:trnsctrl.obj
 0001:00019c69       __CreateFrameInfo          1001ac69 f   libvcruntime:trnsctrl.obj
 0001:00019c8d       __FindAndUnlinkFrame       1001ac8d f   libvcruntime:trnsctrl.obj
 0001:00019cd7       __IsExceptionObjectToBeDestroyed 1001acd7 f   libvcruntime:trnsctrl.obj
 0001:00019cfd       __TranslatorGuardHandler   1001acfd f   libvcruntime:trnsctrl.obj
 0001:00019d9c       ___CxxFrameHandler3        1001ad9c f   libvcruntime:trnsctrl.obj
 0001:00019dd2       ___vcrt_initialize_locks   1001add2 f   libvcruntime:locks.obj
 0001:00019e0e       ___vcrt_uninitialize_locks 1001ae0e f   libvcruntime:locks.obj
 0001:00019f5e       ___vcrt_FlsAlloc           1001af5e f   libvcruntime:winapi_downlevel.obj
 0001:00019f98       ___vcrt_FlsFree            1001af98 f   libvcruntime:winapi_downlevel.obj
 0001:00019fd2       ___vcrt_FlsGetValue        1001afd2 f   libvcruntime:winapi_downlevel.obj
 0001:0001a00c       ___vcrt_FlsSetValue        1001b00c f   libvcruntime:winapi_downlevel.obj
 0001:0001a049       ___vcrt_InitializeCriticalSectionEx 1001b049 f   libvcruntime:winapi_downlevel.obj
 0001:0001a08f       ___vcrt_initialize_winapi_thunks 1001b08f f   libvcruntime:winapi_downlevel.obj
 0001:0001a0c9       ___vcrt_uninitialize_winapi_thunks 1001b0c9 f   libvcruntime:winapi_downlevel.obj
 0001:0001a0fb       ___vcrt_initialize_pure_virtual_call_handler 1001b0fb f   libvcruntime:purevirt_data.obj
 0001:0001a120       __local_unwind4            1001b120 f   libvcruntime:_exsup4_.obj
 0001:0001a1f6       __seh_longjmp_unwind4@4    1001b1f6 f   libvcruntime:_exsup4_.obj
 0001:0001a21e       @_EH4_CallFilterFunc@8     1001b21e f   libvcruntime:_exsup4_.obj
 0001:0001a235       @_EH4_TransferToHandler@8  1001b235 f   libvcruntime:_exsup4_.obj
 0001:0001a24e       @_EH4_GlobalUnwind2@8      1001b24e f   libvcruntime:_exsup4_.obj
 0001:0001a267       @_EH4_LocalUnwind@16       1001b267 f   libvcruntime:_exsup4_.obj
 0001:0001a280       __global_unwind2           1001b280 f   libvcruntime:_exsup_.obj
 0001:0001a2e5       __local_unwind2            1001b2e5 f   libvcruntime:_exsup_.obj
 0001:0001a369       __abnormal_termination     1001b369 f   libvcruntime:_exsup_.obj
 0001:0001a38c       __NLG_Notify1              1001b38c f   libvcruntime:_exsup_.obj
 0001:0001a395       __NLG_Notify               1001b395 f   libvcruntime:_exsup_.obj
 0001:0001a3ac       __NLG_Dispatch             1001b3ac     libvcruntime:_exsup_.obj
 0001:0001a3ac       __NLG_Dispatch2            1001b3ac     libvcruntime:_exsup_.obj
 0001:0001a3b4       __NLG_Call                 1001b3b4 f   libvcruntime:_exsup_.obj
 0001:0001a3b6       __NLG_Return2              1001b3b6     libvcruntime:_exsup_.obj
 0001:0001a3b7       ___acrt_call_reportfault   1001b3b7 f   libucrt:invalid_parameter.obj
 0001:0001a4f2       ___acrt_initialize_invalid_parameter_handler 1001b4f2 f   libucrt:invalid_parameter.obj
 0001:0001a506       __invalid_parameter        1001b506 f   libucrt:invalid_parameter.obj
 0001:0001a581       __invalid_parameter_noinfo 1001b581 f   libucrt:invalid_parameter.obj
 0001:0001a591       __invalid_parameter_noinfo_noreturn 1001b591 f   libucrt:invalid_parameter.obj
 0001:0001a5ae       __invoke_watson            1001b5ae f   libucrt:invalid_parameter.obj
 0001:0001a5e1       ??0_LocaleUpdate@@QAE@QAU__crt_locale_pointers@@@Z 1001b5e1 f i libucrt:stricmp.obj
 0001:0001a664       ___ascii_stricmp           1001b664 f   libucrt:stricmp.obj
 0001:0001a69f       __stricmp                  1001b69f f   libucrt:stricmp.obj
 0001:0001a6e7       __stricmp_l                1001b6e7 f   libucrt:stricmp.obj
 0001:0001a781       _calloc                    1001b781 f   libucrt:calloc.obj
 0001:0001a78c       ___acrt_initialize_stdio   1001b78c f   libucrt:_file.obj
 0001:0001a854       ___acrt_iob_func           1001b854 f   libucrt:_file.obj
 0001:0001a864       ___acrt_uninitialize_stdio 1001b864 f   libucrt:_file.obj
 0001:0001a8b0       __lock_file                1001b8b0 f   libucrt:_file.obj
 0001:0001a8c4       __unlock_file              1001b8c4 f   libucrt:_file.obj
 0001:0001a8d8       _realloc                   1001b8d8 f   libucrt:realloc.obj
 0001:0001a8e3       ??$?RV<lambda_ab9923ffb5d694ec0d78876dd103e44f>@@AAV<lambda_481dd5778c961fbcd3b60b650e9b9dc4>@@V<lambda_7923d86c9e3f319b415918ec4b39749c>@@@?$__crt_seh_guarded_call@H@@QAEH$$QAV<lambda_ab9923ffb5d694ec0d78876dd103e44f>@@AAV<lambda_481dd5778c961fbcd3b60b650e9b9dc4>@@$$QAV<lambda_7923d86c9e3f319b415918ec4b39749c>@@@Z 1001b8e3 f i libucrt:output.obj
 0001:0001a934       ??$__acrt_lock_stream_and_call@V<lambda_481dd5778c961fbcd3b60b650e9b9dc4>@@@@YAHQAU_iobuf@@$$QAV<lambda_481dd5778c961fbcd3b60b650e9b9dc4>@@@Z 1001b934 f i libucrt:output.obj
 0001:0001ac5d       ??$count@D@formatting_buffer@__crt_stdio_output@@QBEIXZ 1001bc5d f i libucrt:output.obj
 0001:0001ac75       ??$ensure_buffer_is_big_enough@D@formatting_buffer@__crt_stdio_output@@QAE_NI@Z 1001bc75 f i libucrt:output.obj
 0001:0001acfb       ??$is_wide_character_specifier@D@__crt_stdio_output@@YA_N_KDW4length_modifier@0@@Z 1001bcfb f i libucrt:output.obj
 0001:0001ad3b       ??$is_wide_character_specifier@_W@__crt_stdio_output@@YA_N_K_WW4length_modifier@0@@Z 1001bd3b f i libucrt:output.obj
 0001:0001ad8a       ??$scratch_data@D@formatting_buffer@__crt_stdio_output@@QAEPADXZ 1001bd8a f i libucrt:output.obj
 0001:0001ada8       ??$type_case_integer_parse_into_buffer@I@?$output_processor@DV?$string_output_adapter@D@__crt_stdio_output@@V?$standard_base@DV?$string_output_adapter@D@__crt_stdio_output@@@2@@__crt_stdio_output@@AAEXII_N@Z 1001bda8 f i libucrt:output.obj
 0001:0001ada8       ??$type_case_integer_parse_into_buffer@I@?$output_processor@_WV?$stream_output_adapter@_W@__crt_stdio_output@@V?$standard_base@_WV?$stream_output_adapter@_W@__crt_stdio_output@@@2@@__crt_stdio_output@@AAEXII_N@Z 1001bda8 f i libucrt:output.obj
 0001:0001ada8       ??$type_case_integer_parse_into_buffer@I@?$output_processor@_WV?$string_output_adapter@_W@__crt_stdio_output@@V?$standard_base@_WV?$string_output_adapter@_W@__crt_stdio_output@@@2@@__crt_stdio_output@@AAEXII_N@Z 1001bda8 f i libucrt:output.obj
 0001:0001ae1d       ??$type_case_integer_parse_into_buffer@_K@?$output_processor@_WV?$string_output_adapter@_W@__crt_stdio_output@@V?$standard_base@_WV?$string_output_adapter@_W@__crt_stdio_output@@@2@@__crt_stdio_output@@AAEX_KI_N@Z 1001be1d f i libucrt:output.obj
 0001:0001ae1d       ??$type_case_integer_parse_into_buffer@_K@?$output_processor@DV?$string_output_adapter@D@__crt_stdio_output@@V?$standard_base@DV?$string_output_adapter@D@__crt_stdio_output@@@2@@__crt_stdio_output@@AAEX_KI_N@Z 1001be1d f i libucrt:output.obj
 0001:0001ae1d       ??$type_case_integer_parse_into_buffer@_K@?$output_processor@_WV?$stream_output_adapter@_W@__crt_stdio_output@@V?$standard_base@_WV?$stream_output_adapter@_W@__crt_stdio_output@@@2@@__crt_stdio_output@@AAEX_KI_N@Z 1001be1d f i libucrt:output.obj
 0001:0001aea5       ??$write_multiple_characters@V?$stream_output_adapter@_W@__crt_stdio_output@@D@__crt_stdio_output@@YAXABV?$stream_output_adapter@_W@0@DHQAH@Z 1001bea5 f i libucrt:output.obj
 0001:0001aed6       ??$write_multiple_characters@V?$string_output_adapter@D@__crt_stdio_output@@D@__crt_stdio_output@@YAXABV?$string_output_adapter@D@0@DHQAH@Z 1001bed6 f i libucrt:output.obj
 0001:0001af02       ??$write_multiple_characters@V?$string_output_adapter@_W@__crt_stdio_output@@D@__crt_stdio_output@@YAXABV?$string_output_adapter@_W@0@DHQAH@Z 1001bf02 f i libucrt:output.obj
 0001:0001af33       ??0?$common_data@D@__crt_stdio_output@@IAE@XZ 1001bf33 f i libucrt:output.obj
 0001:0001af7a       ??0?$common_data@_W@__crt_stdio_output@@IAE@XZ 1001bf7a f i libucrt:output.obj
 0001:0001afc6       ??0?$output_adapter_data@DV?$string_output_adapter@D@__crt_stdio_output@@@__crt_stdio_output@@IAE@ABV?$string_output_adapter@D@1@_KQBDQAU__crt_locale_pointers@@QAD@Z 1001bfc6 f i libucrt:output.obj
 0001:0001b002       ??0?$output_adapter_data@_WV?$string_output_adapter@_W@__crt_stdio_output@@@__crt_stdio_output@@IAE@ABV?$string_output_adapter@_W@1@_KQB_WQAU__crt_locale_pointers@@QAD@Z 1001c002 f i libucrt:output.obj
 0001:0001b002       ??0?$output_adapter_data@_WV?$stream_output_adapter@_W@__crt_stdio_output@@@__crt_stdio_output@@IAE@ABV?$stream_output_adapter@_W@1@_KQB_WQAU__crt_locale_pointers@@QAD@Z 1001c002 f i libucrt:output.obj
 0001:0001b03e       ??0?$output_processor@DV?$string_output_adapter@D@__crt_stdio_output@@V?$standard_base@DV?$string_output_adapter@D@__crt_stdio_output@@@2@@__crt_stdio_output@@QAE@ABV?$string_output_adapter@D@1@_KQBDQAU__crt_locale_pointers@@QAD@Z 1001c03e f i libucrt:output.obj
 0001:0001b073       ??0?$output_processor@_WV?$string_output_adapter@_W@__crt_stdio_output@@V?$standard_base@_WV?$string_output_adapter@_W@__crt_stdio_output@@@2@@__crt_stdio_output@@QAE@ABV?$string_output_adapter@_W@1@_KQB_WQAU__crt_locale_pointers@@QAD@Z 1001c073 f i libucrt:output.obj
 0001:0001b073       ??0?$output_processor@_WV?$stream_output_adapter@_W@__crt_stdio_output@@V?$standard_base@_WV?$stream_output_adapter@_W@__crt_stdio_output@@@2@@__crt_stdio_output@@QAE@ABV?$stream_output_adapter@_W@1@_KQB_WQAU__crt_locale_pointers@@QAD@Z 1001c073 f i libucrt:output.obj
 0001:0001b0a8       ??1formatting_buffer@__crt_stdio_output@@QAE@XZ 1001c0a8 f i libucrt:output.obj
 0001:0001b0c2       ??4?$__crt_unique_heap_ptr@DU__crt_internal_free_policy@@@@QAEAAV0@$$QAV0@@Z 1001c0c2 f i libucrt:output.obj
 0001:0001b1a3       ?crop_zeroes@__crt_stdio_output@@YAXPADQAU__crt_locale_pointers@@@Z 1001c1a3 f i libucrt:output.obj
 0001:0001b1fa       ?find_next_state@?$output_processor@DV?$string_output_adapter@D@__crt_stdio_output@@V?$standard_base@DV?$string_output_adapter@D@__crt_stdio_output@@@2@@__crt_stdio_output@@ABE?AW4state@2@DW432@@Z 1001c1fa f i libucrt:output.obj
 0001:0001b22c       ?find_next_state@?$output_processor@_WV?$stream_output_adapter@_W@__crt_stdio_output@@V?$standard_base@_WV?$stream_output_adapter@_W@__crt_stdio_output@@@2@@__crt_stdio_output@@ABE?AW4state@2@_WW432@@Z 1001c22c f i libucrt:output.obj
 0001:0001b22c       ?find_next_state@?$output_processor@_WV?$string_output_adapter@_W@__crt_stdio_output@@V?$standard_base@_WV?$string_output_adapter@_W@__crt_stdio_output@@@2@@__crt_stdio_output@@ABE?AW4state@2@_WW432@@Z 1001c22c f i libucrt:output.obj
 0001:0001b260       ?force_decimal_point@__crt_stdio_output@@YAXPADQAU__crt_locale_pointers@@@Z 1001c260 f i libucrt:output.obj
 0001:0001b2bc       ?parse_int_from_format_string@?$output_processor@DV?$string_output_adapter@D@__crt_stdio_output@@V?$standard_base@DV?$string_output_adapter@D@__crt_stdio_output@@@2@@__crt_stdio_output@@AAE_NQAH@Z 1001c2bc f i libucrt:output.obj
 0001:0001b318       ?parse_int_from_format_string@?$output_processor@_WV?$string_output_adapter@_W@__crt_stdio_output@@V?$standard_base@_WV?$string_output_adapter@_W@__crt_stdio_output@@@2@@__crt_stdio_output@@AAE_NQAH@Z 1001c318 f i libucrt:output.obj
 0001:0001b318       ?parse_int_from_format_string@?$output_processor@_WV?$stream_output_adapter@_W@__crt_stdio_output@@V?$standard_base@_WV?$stream_output_adapter@_W@__crt_stdio_output@@@2@@__crt_stdio_output@@AAE_NQAH@Z 1001c318 f i libucrt:output.obj
 0001:0001b376       ?process@?$output_processor@DV?$string_output_adapter@D@__crt_stdio_output@@V?$standard_base@DV?$string_output_adapter@D@__crt_stdio_output@@@2@@__crt_stdio_output@@QAEHXZ 1001c376 f i libucrt:output.obj
 0001:0001b492       ?process@?$output_processor@_WV?$stream_output_adapter@_W@__crt_stdio_output@@V?$standard_base@_WV?$stream_output_adapter@_W@__crt_stdio_output@@@2@@__crt_stdio_output@@QAEHXZ 1001c492 f i libucrt:output.obj
 0001:0001b5b2       ?process@?$output_processor@_WV?$string_output_adapter@_W@__crt_stdio_output@@V?$standard_base@_WV?$string_output_adapter@_W@__crt_stdio_output@@@2@@__crt_stdio_output@@QAEHXZ 1001c5b2 f i libucrt:output.obj
 0001:0001b6d2       ?state_case_flag@?$output_processor@DV?$string_output_adapter@D@__crt_stdio_output@@V?$standard_base@DV?$string_output_adapter@D@__crt_stdio_output@@@2@@__crt_stdio_output@@AAE_NXZ 1001c6d2 f i libucrt:output.obj
 0001:0001b70f       ?state_case_flag@?$output_processor@_WV?$stream_output_adapter@_W@__crt_stdio_output@@V?$standard_base@_WV?$stream_output_adapter@_W@__crt_stdio_output@@@2@@__crt_stdio_output@@AAE_NXZ 1001c70f f i libucrt:output.obj
 0001:0001b70f       ?state_case_flag@?$output_processor@_WV?$string_output_adapter@_W@__crt_stdio_output@@V?$standard_base@_WV?$string_output_adapter@_W@__crt_stdio_output@@@2@@__crt_stdio_output@@AAE_NXZ 1001c70f f i libucrt:output.obj
 0001:0001b74c       ?state_case_normal@?$output_processor@DV?$string_output_adapter@D@__crt_stdio_output@@V?$standard_base@DV?$string_output_adapter@D@__crt_stdio_output@@@2@@__crt_stdio_output@@AAE_NXZ 1001c74c f i libucrt:output.obj
 0001:0001b76b       ?state_case_normal@?$output_processor@_WV?$stream_output_adapter@_W@__crt_stdio_output@@V?$standard_base@_WV?$stream_output_adapter@_W@__crt_stdio_output@@@2@@__crt_stdio_output@@AAE_NXZ 1001c76b f i libucrt:output.obj
 0001:0001b78a       ?state_case_normal@?$output_processor@_WV?$string_output_adapter@_W@__crt_stdio_output@@V?$standard_base@_WV?$string_output_adapter@_W@__crt_stdio_output@@@2@@__crt_stdio_output@@AAE_NXZ 1001c78a f i libucrt:output.obj
 0001:0001b7a9       ?state_case_normal_common@?$output_processor@DV?$string_output_adapter@D@__crt_stdio_output@@V?$standard_base@DV?$string_output_adapter@D@__crt_stdio_output@@@2@@__crt_stdio_output@@AAE_NXZ 1001c7a9 f i libucrt:output.obj
 0001:0001b7d3       ?state_case_normal_common@?$output_processor@_WV?$stream_output_adapter@_W@__crt_stdio_output@@V?$standard_base@_WV?$stream_output_adapter@_W@__crt_stdio_output@@@2@@__crt_stdio_output@@AAE_NXZ 1001c7d3 f i libucrt:output.obj
 0001:0001b7ee       ?state_case_normal_common@?$output_processor@_WV?$string_output_adapter@_W@__crt_stdio_output@@V?$standard_base@_WV?$string_output_adapter@_W@__crt_stdio_output@@@2@@__crt_stdio_output@@AAE_NXZ 1001c7ee f i libucrt:output.obj
 0001:0001b809       ?state_case_normal_tchar@?$output_processor@DV?$string_output_adapter@D@__crt_stdio_output@@V?$standard_base@DV?$string_output_adapter@D@__crt_stdio_output@@@2@@__crt_stdio_output@@AAE_ND@Z 1001c809 f i libucrt:output.obj
 0001:0001b86a       ?state_case_precision@?$output_processor@DV?$string_output_adapter@D@__crt_stdio_output@@V?$standard_base@DV?$string_output_adapter@D@__crt_stdio_output@@@2@@__crt_stdio_output@@AAE_NXZ 1001c86a f i libucrt:output.obj
 0001:0001b892       ?state_case_precision@?$output_processor@_WV?$stream_output_adapter@_W@__crt_stdio_output@@V?$standard_base@_WV?$stream_output_adapter@_W@__crt_stdio_output@@@2@@__crt_stdio_output@@AAE_NXZ 1001c892 f i libucrt:output.obj
 0001:0001b892       ?state_case_precision@?$output_processor@_WV?$string_output_adapter@_W@__crt_stdio_output@@V?$standard_base@_WV?$string_output_adapter@_W@__crt_stdio_output@@@2@@__crt_stdio_output@@AAE_NXZ 1001c892 f i libucrt:output.obj
 0001:0001b8bb       ?state_case_size@?$output_processor@DV?$string_output_adapter@D@__crt_stdio_output@@V?$standard_base@DV?$string_output_adapter@D@__crt_stdio_output@@@2@@__crt_stdio_output@@AAE_NXZ 1001c8bb f i libucrt:output.obj
 0001:0001ba24       ?state_case_size@?$output_processor@_WV?$stream_output_adapter@_W@__crt_stdio_output@@V?$standard_base@_WV?$stream_output_adapter@_W@__crt_stdio_output@@@2@@__crt_stdio_output@@AAE_NXZ 1001ca24 f i libucrt:output.obj
 0001:0001bba0       ?state_case_size@?$output_processor@_WV?$string_output_adapter@_W@__crt_stdio_output@@V?$standard_base@_WV?$string_output_adapter@_W@__crt_stdio_output@@@2@@__crt_stdio_output@@AAE_NXZ 1001cba0 f i libucrt:output.obj
 0001:0001bd1c       ?state_case_type@?$output_processor@DV?$string_output_adapter@D@__crt_stdio_output@@V?$standard_base@DV?$string_output_adapter@D@__crt_stdio_output@@@2@@__crt_stdio_output@@AAE_NXZ 1001cd1c f i libucrt:output.obj
 0001:0001bf4b       ?state_case_type@?$output_processor@_WV?$stream_output_adapter@_W@__crt_stdio_output@@V?$standard_base@_WV?$stream_output_adapter@_W@__crt_stdio_output@@@2@@__crt_stdio_output@@AAE_NXZ 1001cf4b f i libucrt:output.obj
 0001:0001c1a8       ?state_case_type@?$output_processor@_WV?$string_output_adapter@_W@__crt_stdio_output@@V?$standard_base@_WV?$string_output_adapter@_W@__crt_stdio_output@@@2@@__crt_stdio_output@@AAE_NXZ 1001d1a8 f i libucrt:output.obj
 0001:0001c405       ?state_case_width@?$output_processor@DV?$string_output_adapter@D@__crt_stdio_output@@V?$standard_base@DV?$string_output_adapter@D@__crt_stdio_output@@@2@@__crt_stdio_output@@AAE_NXZ 1001d405 f i libucrt:output.obj
 0001:0001c430       ?state_case_width@?$output_processor@_WV?$string_output_adapter@_W@__crt_stdio_output@@V?$standard_base@_WV?$string_output_adapter@_W@__crt_stdio_output@@@2@@__crt_stdio_output@@AAE_NXZ 1001d430 f i libucrt:output.obj
 0001:0001c430       ?state_case_width@?$output_processor@_WV?$stream_output_adapter@_W@__crt_stdio_output@@V?$standard_base@_WV?$stream_output_adapter@_W@__crt_stdio_output@@@2@@__crt_stdio_output@@AAE_NXZ 1001d430 f i libucrt:output.obj
 0001:0001c45c       ?to_integer_size@__crt_stdio_output@@YAIW4length_modifier@1@@Z 1001d45c f i libucrt:output.obj
 0001:0001c4b8       ?type_case_Z@?$output_processor@DV?$string_output_adapter@D@__crt_stdio_output@@V?$standard_base@DV?$string_output_adapter@D@__crt_stdio_output@@@2@@__crt_stdio_output@@AAE_NXZ 1001d4b8 f i libucrt:output.obj
 0001:0001c51b       ?type_case_Z@?$output_processor@_WV?$string_output_adapter@_W@__crt_stdio_output@@V?$standard_base@_WV?$string_output_adapter@_W@__crt_stdio_output@@@2@@__crt_stdio_output@@AAE_NXZ 1001d51b f i libucrt:output.obj
 0001:0001c51b       ?type_case_Z@?$output_processor@_WV?$stream_output_adapter@_W@__crt_stdio_output@@V?$standard_base@_WV?$stream_output_adapter@_W@__crt_stdio_output@@@2@@__crt_stdio_output@@AAE_NXZ 1001d51b f i libucrt:output.obj
 0001:0001c57e       ?type_case_a@?$output_processor@DV?$string_output_adapter@D@__crt_stdio_output@@V?$standard_base@DV?$string_output_adapter@D@__crt_stdio_output@@@2@@__crt_stdio_output@@AAE_NXZ 1001d57e f i libucrt:output.obj
 0001:0001c6d8       ?type_case_a@?$output_processor@_WV?$string_output_adapter@_W@__crt_stdio_output@@V?$standard_base@_WV?$string_output_adapter@_W@__crt_stdio_output@@@2@@__crt_stdio_output@@AAE_NXZ 1001d6d8 f i libucrt:output.obj
 0001:0001c6d8       ?type_case_a@?$output_processor@_WV?$stream_output_adapter@_W@__crt_stdio_output@@V?$standard_base@_WV?$stream_output_adapter@_W@__crt_stdio_output@@@2@@__crt_stdio_output@@AAE_NXZ 1001d6d8 f i libucrt:output.obj
 0001:0001c84a       ?type_case_c_tchar@?$output_processor@DV?$string_output_adapter@D@__crt_stdio_output@@V?$standard_base@DV?$string_output_adapter@D@__crt_stdio_output@@@2@@__crt_stdio_output@@AAE_ND@Z 1001d84a f i libucrt:output.obj
 0001:0001c8da       ?type_case_c_tchar@?$output_processor@_WV?$stream_output_adapter@_W@__crt_stdio_output@@V?$standard_base@_WV?$stream_output_adapter@_W@__crt_stdio_output@@@2@@__crt_stdio_output@@AAE_N_W@Z 1001d8da f i libucrt:output.obj
 0001:0001c8da       ?type_case_c_tchar@?$output_processor@_WV?$string_output_adapter@_W@__crt_stdio_output@@V?$standard_base@_WV?$string_output_adapter@_W@__crt_stdio_output@@@2@@__crt_stdio_output@@AAE_N_W@Z 1001d8da f i libucrt:output.obj
 0001:0001c972       ?type_case_integer@?$output_processor@_WV?$string_output_adapter@_W@__crt_stdio_output@@V?$standard_base@_WV?$string_output_adapter@_W@__crt_stdio_output@@@2@@__crt_stdio_output@@AAE_NI_N@Z 1001d972 f i libucrt:output.obj
 0001:0001c972       ?type_case_integer@?$output_processor@_WV?$stream_output_adapter@_W@__crt_stdio_output@@V?$standard_base@_WV?$stream_output_adapter@_W@__crt_stdio_output@@@2@@__crt_stdio_output@@AAE_NI_N@Z 1001d972 f i libucrt:output.obj
 0001:0001c972       ?type_case_integer@?$output_processor@DV?$string_output_adapter@D@__crt_stdio_output@@V?$standard_base@DV?$string_output_adapter@D@__crt_stdio_output@@@2@@__crt_stdio_output@@AAE_NI_N@Z 1001d972 f i libucrt:output.obj
 0001:0001cabc       ?type_case_n@?$output_processor@_WV?$stream_output_adapter@_W@__crt_stdio_output@@V?$standard_base@_WV?$stream_output_adapter@_W@__crt_stdio_output@@@2@@__crt_stdio_output@@AAE_NXZ 1001dabc f i libucrt:output.obj
 0001:0001cabc       ?type_case_n@?$output_processor@_WV?$string_output_adapter@_W@__crt_stdio_output@@V?$standard_base@_WV?$string_output_adapter@_W@__crt_stdio_output@@@2@@__crt_stdio_output@@AAE_NXZ 1001dabc f i libucrt:output.obj
 0001:0001cabc       ?type_case_n@?$output_processor@DV?$string_output_adapter@D@__crt_stdio_output@@V?$standard_base@DV?$string_output_adapter@D@__crt_stdio_output@@@2@@__crt_stdio_output@@AAE_NXZ 1001dabc f i libucrt:output.obj
 0001:0001cb30       ?type_case_o@?$output_processor@DV?$string_output_adapter@D@__crt_stdio_output@@V?$standard_base@DV?$string_output_adapter@D@__crt_stdio_output@@@2@@__crt_stdio_output@@AAE_NXZ 1001db30 f i libucrt:output.obj
 0001:0001cb30       ?type_case_o@?$output_processor@_WV?$stream_output_adapter@_W@__crt_stdio_output@@V?$standard_base@_WV?$stream_output_adapter@_W@__crt_stdio_output@@@2@@__crt_stdio_output@@AAE_NXZ 1001db30 f i libucrt:output.obj
 0001:0001cb30       ?type_case_o@?$output_processor@_WV?$string_output_adapter@_W@__crt_stdio_output@@V?$standard_base@_WV?$string_output_adapter@_W@__crt_stdio_output@@@2@@__crt_stdio_output@@AAE_NXZ 1001db30 f i libucrt:output.obj
 0001:0001cb4f       ?type_case_p@?$output_processor@_WV?$stream_output_adapter@_W@__crt_stdio_output@@V?$standard_base@_WV?$stream_output_adapter@_W@__crt_stdio_output@@@2@@__crt_stdio_output@@AAE_NXZ 1001db4f f i libucrt:output.obj
 0001:0001cb4f       ?type_case_p@?$output_processor@_WV?$string_output_adapter@_W@__crt_stdio_output@@V?$standard_base@_WV?$string_output_adapter@_W@__crt_stdio_output@@@2@@__crt_stdio_output@@AAE_NXZ 1001db4f f i libucrt:output.obj
 0001:0001cb4f       ?type_case_p@?$output_processor@DV?$string_output_adapter@D@__crt_stdio_output@@V?$standard_base@DV?$string_output_adapter@D@__crt_stdio_output@@@2@@__crt_stdio_output@@AAE_NXZ 1001db4f f i libucrt:output.obj
 0001:0001cb67       ?type_case_s@?$output_processor@DV?$string_output_adapter@D@__crt_stdio_output@@V?$standard_base@DV?$string_output_adapter@D@__crt_stdio_output@@@2@@__crt_stdio_output@@AAE_NXZ 1001db67 f i libucrt:output.obj
 0001:0001cbda       ?type_case_s@?$output_processor@_WV?$stream_output_adapter@_W@__crt_stdio_output@@V?$standard_base@_WV?$stream_output_adapter@_W@__crt_stdio_output@@@2@@__crt_stdio_output@@AAE_NXZ 1001dbda f i libucrt:output.obj
 0001:0001cbda       ?type_case_s@?$output_processor@_WV?$string_output_adapter@_W@__crt_stdio_output@@V?$standard_base@_WV?$string_output_adapter@_W@__crt_stdio_output@@@2@@__crt_stdio_output@@AAE_NXZ 1001dbda f i libucrt:output.obj
 0001:0001cc4e       ?type_case_s_compute_narrow_string_length@?$output_processor@_WV?$stream_output_adapter@_W@__crt_stdio_output@@V?$standard_base@_WV?$stream_output_adapter@_W@__crt_stdio_output@@@2@@__crt_stdio_output@@ABEHH_W@Z 1001dc4e f i libucrt:output.obj
 0001:0001cc4e       ?type_case_s_compute_narrow_string_length@?$output_processor@_WV?$string_output_adapter@_W@__crt_stdio_output@@V?$standard_base@_WV?$string_output_adapter@_W@__crt_stdio_output@@@2@@__crt_stdio_output@@ABEHH_W@Z 1001dc4e f i libucrt:output.obj
 0001:0001cc8e       ?validate@?$stream_output_adapter@_W@__crt_stdio_output@@QBE_NXZ 1001dc8e f i libucrt:output.obj
 0001:0001cc8e       ?validate@?$c_string_character_source@D@__crt_strtox@@QBE_NXZ 1001dc8e f i libucrt:atox.obj
 0001:0001cc8e       ?validate@?$c_string_character_source@_W@__crt_strtox@@QBE_NXZ 1001dc8e f i libucrt:atox.obj
 0001:0001cc8e       ?validate@?$string_output_adapter@_W@__crt_stdio_output@@QBE_NXZ 1001dc8e f i libucrt:output.obj
 0001:0001cc8e       ?validate@?$string_output_adapter@D@__crt_stdio_output@@QBE_NXZ 1001dc8e f i libucrt:output.obj
 0001:0001cca9       ?write_character@?$stream_output_adapter@_W@__crt_stdio_output@@QBEX_WQAH@Z 1001dca9 f i libucrt:output.obj
 0001:0001cce9       ?write_character@?$string_output_adapter@D@__crt_stdio_output@@QBE_NDQAH@Z 1001dce9 f i libucrt:output.obj
 0001:0001cd2b       ?write_character@?$string_output_adapter@_W@__crt_stdio_output@@QBE_N_WQAH@Z 1001dd2b f i libucrt:output.obj
 0001:0001cd70       ?write_stored_string_tchar@?$output_processor@DV?$string_output_adapter@D@__crt_stdio_output@@V?$standard_base@DV?$string_output_adapter@D@__crt_stdio_output@@@2@@__crt_stdio_output@@AAE_ND@Z 1001dd70 f i libucrt:output.obj
 0001:0001ce17       ?write_stored_string_tchar@?$output_processor@_WV?$stream_output_adapter@_W@__crt_stdio_output@@V?$standard_base@_WV?$stream_output_adapter@_W@__crt_stdio_output@@@2@@__crt_stdio_output@@AAE_N_W@Z 1001de17 f i libucrt:output.obj
 0001:0001cea2       ?write_stored_string_tchar@?$output_processor@_WV?$string_output_adapter@_W@__crt_stdio_output@@V?$standard_base@_WV?$string_output_adapter@_W@__crt_stdio_output@@@2@@__crt_stdio_output@@AAE_N_W@Z 1001dea2 f i libucrt:output.obj
 0001:0001cf2d       ?write_string@?$stream_output_adapter@_W@__crt_stdio_output@@QBEXQB_WHQAH1@Z 1001df2d f i libucrt:output.obj
 0001:0001cfba       ?write_string@?$string_output_adapter@D@__crt_stdio_output@@QBEXQBDHQAH1@Z 1001dfba f i libucrt:output.obj
 0001:0001d04d       ?write_string@?$string_output_adapter@_W@__crt_stdio_output@@QBEXQB_WHQAH1@Z 1001e04d f i libucrt:output.obj
 0001:0001d0e7       ___stdio_common_vfwprintf  1001e0e7 f   libucrt:output.obj
 0001:0001d15e       ___stdio_common_vsprintf   1001e15e f   libucrt:output.obj
 0001:0001d182       ___stdio_common_vswprintf  1001e182 f   libucrt:output.obj
 0001:0001d1a6       ??$?RV<lambda_b0cac3301889906f8da68b04e3d9a7f4>@@AAV<lambda_9a20e10065b92b5193c3597a66cba9d4>@@V<lambda_24b35df97fd4c1fecac72a72d95cc146>@@@?$__crt_seh_guarded_call@H@@QAEH$$QAV<lambda_b0cac3301889906f8da68b04e3d9a7f4>@@AAV<lambda_9a20e10065b92b5193c3597a66cba9d4>@@$$QAV<lambda_24b35df97fd4c1fecac72a72d95cc146>@@@Z 1001e1a6 f i libucrt:fputs.obj
 0001:0001d1f7       ??$__acrt_lock_stream_and_call@V<lambda_9a20e10065b92b5193c3597a66cba9d4>@@@@YAHQAU_iobuf@@$$QAV<lambda_9a20e10065b92b5193c3597a66cba9d4>@@@Z 1001e1f7 f i libucrt:fputs.obj
 0001:0001d26d       _fputs                     1001e26d f   libucrt:fputs.obj
 0001:0001d348       _free                      1001e348 f   libucrt:free.obj
 0001:0001d34d       ??$is_overflow_condition@K@__crt_strtox@@YA_NIK@Z 1001e34d f i libucrt:atox.obj
 0001:0001d380       ??$is_overflow_condition@_K@__crt_strtox@@YA_NI_K@Z 1001e380 f i libucrt:atox.obj
 0001:0001d3c3       ??$make_c_string_character_source@_WPAPA_W@__crt_strtox@@YA?AV?$c_string_character_source@_W@0@QB_WQAPA_W@Z 1001e3c3 f i libucrt:strtox.obj
 0001:0001d3c3       ??$make_c_string_character_source@D$$T@__crt_strtox@@YA?AV?$c_string_character_source@D@0@QBD$$T@Z 1001e3c3 f i libucrt:atox.obj
 0001:0001d3c3       ??$make_c_string_character_source@DPAPAD@__crt_strtox@@YA?AV?$c_string_character_source@D@0@QBDQAPAD@Z 1001e3c3 f i libucrt:strtox.obj
 0001:0001d3de       ??$parse_integer@KV?$c_string_character_source@D@__crt_strtox@@@__crt_strtox@@YAKQAU__crt_locale_pointers@@V?$c_string_character_source@D@0@H_N@Z 1001e3de f i libucrt:atox.obj
 0001:0001d606       ??$parse_integer@KV?$c_string_character_source@_W@__crt_strtox@@@__crt_strtox@@YAKQAU__crt_locale_pointers@@V?$c_string_character_source@_W@0@H_N@Z 1001e606 f i libucrt:atox.obj
 0001:0001dceb       ??$parse_integer@_KV?$c_string_character_source@D@__crt_strtox@@@__crt_strtox@@YA_KQAU__crt_locale_pointers@@V?$c_string_character_source@D@0@H_N@Z 1001eceb f i libucrt:atox.obj
 0001:0001df91       ?unget@?$c_string_character_source@D@__crt_strtox@@QAEXD@Z 1001ef91 f i libucrt:atox.obj
 0001:0001dfb9       ?unget@?$c_string_character_source@_W@__crt_strtox@@QAEX_W@Z 1001efb9 f i libucrt:atox.obj
 0001:0001dfe5       __chvalidchk_l             1001efe5 f i libucrt:atox.obj
 0001:0001e00f       __ischartype_l             1001f00f f i libucrt:atox.obj
 0001:0001e042       _atoi                      1001f042 f   libucrt:atox.obj
 0001:0001e15c       _getenv                    1001f15c f   libucrt:getenv.obj
 0001:0001e167       _malloc                    1001f167 f   libucrt:malloc.obj
 0001:0001e172       ___acrt_errno_from_os_error 1001f172 f   libucrt:errno.obj
 0001:0001e1b5       ___acrt_errno_map_os_error 1001f1b5 f   libucrt:errno.obj
 0001:0001e1d8       ___doserrno                1001f1d8 f   libucrt:errno.obj
 0001:0001e1eb       __errno                    1001f1eb f   libucrt:errno.obj
 0001:0001e862       ??$ftprintf@PAU_iobuf@@PB_WABQB_WABQB_WABI@?$__crt_char_traits@_W@@SAH$$QAPAU_iobuf@@$$QAPB_WABQB_W2ABI@Z 1001f862 f i libucrt:assert.obj
 0001:0001e941       __vfwprintf_l              1001f941 f i libucrt:assert.obj
 0001:0001e966       __vswprintf_c_l            1001f966 f i libucrt:assert.obj
 0001:0001e995       __wassert                  1001f995 f   libucrt:assert.obj
 0001:0001e9dd       _fwprintf                  1001f9dd f i libucrt:assert.obj
 0001:0001ea79       _swprintf                  1001fa79 f i libucrt:assert.obj
 0001:0001ea97       _strtok                    1001fa97 f   libucrt:strtok.obj
 0001:0001ed83       __tolower_l                1001fd83 f   libucrt:tolower_toupper.obj
 0001:0001ed9d       __toupper_l                1001fd9d f   libucrt:tolower_toupper.obj
 0001:0001edb7       _tolower                   1001fdb7 f   libucrt:tolower_toupper.obj
 0001:0001ede7       _toupper                   1001fde7 f   libucrt:tolower_toupper.obj
 0001:0001ee94       ??Rthread_parameter_free_policy@?A0xe57bf005@@QAEXQAU__acrt_thread_parameter@@@Z 1001fe94 f i libucrt:thread.obj
 0001:0001ef6b       __beginthreadex            1001ff6b f   libucrt:thread.obj
 0001:0001eff0       __endthreadex              1001fff0 f   libucrt:thread.obj
 0001:0001effe       __strdup                   1001fffe f   libucrt:strdup.obj
 0001:0001f060       _strncmp                   10020060 f   libucrt:strncmp.obj
 0001:0001f0e0       _strncat                   100200e0 f   libucrt:strncat.obj
 0001:0001f215       ??$assemble_floating_point_ind@N@__crt_strtox@@YAXAAN@Z 10020215 f i libucrt:input.obj
 0001:0001f244       ??$assemble_floating_point_infinity@N@__crt_strtox@@YAX_NAAN@Z 10020244 f i libucrt:input.obj
 0001:0001f283       ??$assemble_floating_point_qnan@N@__crt_strtox@@YAX_NAAN@Z 10020283 f i libucrt:input.obj
 0001:0001f2c2       ??$assemble_floating_point_snan@N@__crt_strtox@@YAX_NAAN@Z 100202c2 f i libucrt:input.obj
 0001:0001f306       ??$assemble_floating_point_value_t@M@__crt_strtox@@YA?AW4SLD_STATUS@@_NH_KAAM@Z 10020306 f i libucrt:input.obj
 0001:0001f336       ??$assemble_floating_point_value_t@N@__crt_strtox@@YA?AW4SLD_STATUS@@_NH_KAAN@Z 10020336 f i libucrt:input.obj
 0001:0001f395       ??$assemble_floating_point_zero@N@__crt_strtox@@YAX_NAAN@Z 10020395 f i libucrt:input.obj
 0001:0001f493       ??$convert_decimal_string_to_floating_type@M@__crt_strtox@@YA?AW4SLD_STATUS@@ABUfloating_point_string@0@AAM@Z 10020493 f i libucrt:input.obj
 0001:0001f4b6       ??$convert_decimal_string_to_floating_type@N@__crt_strtox@@YA?AW4SLD_STATUS@@ABUfloating_point_string@0@AAN@Z 100204b6 f i libucrt:input.obj
 0001:0001f4d9       ??$convert_hexadecimal_string_to_floating_type@M@__crt_strtox@@YA?AW4SLD_STATUS@@ABUfloating_point_string@0@AAM@Z 100204d9 f i libucrt:input.obj
 0001:0001f4fc       ??$convert_hexadecimal_string_to_floating_type@N@__crt_strtox@@YA?AW4SLD_STATUS@@ABUfloating_point_string@0@AAN@Z 100204fc f i libucrt:input.obj
 0001:0001f51f       ??$make_input_adapter_character_source@V?$string_input_adapter@D@__crt_stdio_input@@@__crt_strtox@@YA?AV?$input_adapter_character_source@V?$string_input_adapter@D@__crt_stdio_input@@@0@QAV?$string_input_adapter@D@__crt_stdio_input@@_KQA_N@Z 1002051f f i libucrt:input.obj
 0001:0001f53d       ??$parse_floating_point@V?$input_adapter_character_source@V?$string_input_adapter@D@__crt_stdio_input@@@__crt_strtox@@M@__crt_strtox@@YA?AW4SLD_STATUS@@QAU__crt_locale_pointers@@V?$input_adapter_character_source@V?$string_input_adapter@D@__crt_stdio_input@@@0@QAM@Z 1002053d f i libucrt:input.obj
 0001:0001f5b8       ??$parse_floating_point@V?$input_adapter_character_source@V?$string_input_adapter@D@__crt_stdio_input@@@__crt_strtox@@N@__crt_strtox@@YA?AW4SLD_STATUS@@QAU__crt_locale_pointers@@V?$input_adapter_character_source@V?$string_input_adapter@D@__crt_stdio_input@@@0@QAN@Z 100205b8 f i libucrt:input.obj
 0001:0001f633       ??$parse_floating_point_from_source@V?$input_adapter_character_source@V?$string_input_adapter@D@__crt_stdio_input@@@__crt_strtox@@@__crt_strtox@@YA?AW4floating_point_parse_result@0@QAU__crt_locale_pointers@@AAV?$input_adapter_character_source@V?$string_input_adapter@D@__crt_stdio_input@@@0@AAUfloating_point_string@0@@Z 10020633 f i libucrt:input.obj
 0001:0001fa9a       ??$parse_floating_point_possible_infinity@DV?$input_adapter_character_source@V?$string_input_adapter@D@__crt_stdio_input@@@__crt_strtox@@_K@__crt_strtox@@YA?AW4floating_point_parse_result@0@AADAAV?$input_adapter_character_source@V?$string_input_adapter@D@__crt_stdio_input@@@0@_K@Z 10020a9a f i libucrt:input.obj
 0001:0001fb5b       ??$parse_floating_point_possible_nan@DV?$input_adapter_character_source@V?$string_input_adapter@D@__crt_stdio_input@@@__crt_strtox@@_K@__crt_strtox@@YA?AW4floating_point_parse_result@0@AADAAV?$input_adapter_character_source@V?$string_input_adapter@D@__crt_stdio_input@@@0@_K@Z 10020b5b f i libucrt:input.obj
 0001:0001fc6d       ??$parse_floating_point_possible_nan_is_ind@DV?$input_adapter_character_source@V?$string_input_adapter@D@__crt_stdio_input@@@__crt_strtox@@@__crt_strtox@@YA_NAADAAV?$input_adapter_character_source@V?$string_input_adapter@D@__crt_stdio_input@@@0@@Z 10020c6d f i libucrt:input.obj
 0001:0001fca7       ??$parse_floating_point_possible_nan_is_snan@DV?$input_adapter_character_source@V?$string_input_adapter@D@__crt_stdio_input@@@__crt_strtox@@@__crt_strtox@@YA_NAADAAV?$input_adapter_character_source@V?$string_input_adapter@D@__crt_stdio_input@@@0@@Z 10020ca7 f i libucrt:input.obj
 0001:0001fce1       ??$parse_floating_point_write_result@M@__crt_strtox@@YA?AW4SLD_STATUS@@W4floating_point_parse_result@0@ABUfloating_point_string@0@QAM@Z 10020ce1 f i libucrt:input.obj
 0001:0001fdf1       ??$parse_floating_point_write_result@N@__crt_strtox@@YA?AW4SLD_STATUS@@W4floating_point_parse_result@0@ABUfloating_point_string@0@QAN@Z 10020df1 f i libucrt:input.obj
 0001:0001fef5       ??$parse_integer@_KV?$input_adapter_character_source@V?$string_input_adapter@D@__crt_stdio_input@@@__crt_strtox@@@__crt_strtox@@YA_KQAU__crt_locale_pointers@@V?$input_adapter_character_source@V?$string_input_adapter@D@__crt_stdio_input@@@0@H_N@Z 10020ef5 f i libucrt:input.obj
 0001:000201a6       ??$process_floating_point_specifier_t@M@?$input_processor@DV?$string_input_adapter@D@__crt_stdio_input@@@__crt_stdio_input@@AAE_NXZ 100211a6 f i libucrt:input.obj
 0001:0002020e       ??$process_floating_point_specifier_t@N@?$input_processor@DV?$string_input_adapter@D@__crt_stdio_input@@@__crt_stdio_input@@AAE_NXZ 1002120e f i libucrt:input.obj
 0001:00020276       ??$process_string_specifier_tchar@D@?$input_processor@DV?$string_input_adapter@D@__crt_stdio_input@@@__crt_stdio_input@@AAE_NW4conversion_mode@1@D@Z 10021276 f i libucrt:input.obj
 0001:000203d8       ??$process_string_specifier_tchar@_W@?$input_processor@DV?$string_input_adapter@D@__crt_stdio_input@@@__crt_stdio_input@@AAE_NW4conversion_mode@1@_W@Z 100213d8 f i libucrt:input.obj
 0001:00020544       ??$skip_whitespace@Vstring_input_adapter@__crt_stdio_input@@D@__crt_stdio_input@@YAHAAV?$string_input_adapter@D@0@QAU__crt_locale_pointers@@@Z 10021544 f i libucrt:input.obj
 0001:00020573       ??$write_floating_point@M@?$input_processor@DV?$string_input_adapter@D@__crt_stdio_input@@@__crt_stdio_input@@AAE_NABM@Z 10021573 f i libucrt:input.obj
 0001:000205aa       ??$write_floating_point@N@?$input_processor@DV?$string_input_adapter@D@__crt_stdio_input@@@__crt_stdio_input@@AAE_NABN@Z 100215aa f i libucrt:input.obj
 0001:000205e7       ??0?$format_string_parser@D@__crt_stdio_input@@QAE@_KQBE@Z 100215e7 f i libucrt:input.obj
 0001:00020631       ??0?$input_adapter_character_source@V?$string_input_adapter@D@__crt_stdio_input@@@__crt_strtox@@QAE@QAV?$string_input_adapter@D@__crt_stdio_input@@_KQA_N@Z 10021631 f i libucrt:input.obj
 0001:00020662       ??0?$input_processor@DV?$string_input_adapter@D@__crt_stdio_input@@@__crt_stdio_input@@QAE@ABV?$string_input_adapter@D@1@_KQBDQAU__crt_locale_pointers@@QAD@Z 10021662 f i libucrt:input.obj
 0001:000206d4       ?advance@?$format_string_parser@D@__crt_stdio_input@@QAE_NXZ 100216d4 f i libucrt:input.obj
 0001:000207f4       ?as_double@floating_point_value@__crt_strtox@@QBEAANXZ 100217f4 f i libucrt:input.obj
 0001:00020819       ?as_float@floating_point_value@__crt_strtox@@QBEAAMXZ 10021819 f i libucrt:input.obj
 0001:0002083e       ?assemble_floating_point_infinity@__crt_strtox@@YAX_NABVfloating_point_value@1@@Z 1002183e f i libucrt:input.obj
 0001:00020878       ?assemble_floating_point_value@__crt_strtox@@YA?AW4SLD_STATUS@@_KH_N1ABVfloating_point_value@1@@Z 10021878 f i libucrt:input.obj
 0001:00020bc4       ?assemble_floating_point_value_from_big_integer@__crt_strtox@@YA?AW4SLD_STATUS@@ABUbig_integer@1@I_N1ABVfloating_point_value@1@@Z 10021bc4 f i libucrt:input.obj
 0001:00020d52       ?assemble_floating_point_zero@__crt_strtox@@YAX_NABVfloating_point_value@1@@Z 10021d52 f i libucrt:input.obj
 0001:00020d86       ?convert_decimal_string_to_floating_type_common@__crt_strtox@@YA?AW4SLD_STATUS@@ABUfloating_point_string@1@ABVfloating_point_value@1@@Z 10021d86 f i libucrt:input.obj
 0001:00022b49       ?convert_hexadecimal_string_to_floating_type_common@__crt_strtox@@YA?AW4SLD_STATUS@@ABUfloating_point_string@1@ABVfloating_point_value@1@@Z 10023b49 f i libucrt:input.obj
 0001:00022bf5       ?denormal_mantissa_mask@floating_point_value@__crt_strtox@@QBE_KXZ 10023bf5 f i libucrt:input.obj
 0001:00022c10       ?divide@__crt_strtox@@YA_KAAUbig_integer@1@ABU21@@Z 10023c10 f i libucrt:input.obj
 0001:000230be       ?get@?$input_adapter_character_source@V?$string_input_adapter@D@__crt_stdio_input@@@__crt_strtox@@QAEDXZ 100240be f i libucrt:input.obj
 0001:000230f8       ?get@?$string_input_adapter@D@__crt_stdio_input@@QAEHXZ 100240f8 f i libucrt:input.obj
 0001:0002310e       ?invert@?$scanset_buffer@E@__crt_stdio_input@@QAEXXZ 1002410e f i libucrt:input.obj
 0001:0002312c       ?is_character_allowed_in_string@?$input_processor@DV?$string_input_adapter@D@__crt_stdio_input@@@__crt_stdio_input@@ABE_NW4conversion_mode@2@H@Z 1002412c f i libucrt:input.obj
 0001:00023172       ?length@?$format_string_parser@D@__crt_stdio_input@@QBEIXZ 10024172 f i libucrt:input.obj
 0001:000231b3       ?normal_mantissa_mask@floating_point_value@__crt_strtox@@QBE_KXZ 100241b3 f i libucrt:input.obj
 0001:000231ca       ?process@?$input_processor@DV?$string_input_adapter@D@__crt_stdio_input@@@__crt_stdio_input@@QAEHXZ 100241ca f i libucrt:input.obj
 0001:0002324f       ?process_character_count_specifier@?$input_processor@DV?$string_input_adapter@D@__crt_stdio_input@@@__crt_stdio_input@@AAE_NXZ 1002424f f i libucrt:input.obj
 0001:00023269       ?process_conversion_specifier@?$input_processor@DV?$string_input_adapter@D@__crt_stdio_input@@@__crt_stdio_input@@AAE_NXZ 10024269 f i libucrt:input.obj
 0001:000232dd       ?process_floating_point_specifier@?$input_processor@DV?$string_input_adapter@D@__crt_stdio_input@@@__crt_stdio_input@@AAE_NXZ 100242dd f i libucrt:input.obj
 0001:0002330d       ?process_integer_specifier@?$input_processor@DV?$string_input_adapter@D@__crt_stdio_input@@@__crt_stdio_input@@AAE_NI_N@Z 1002430d f i libucrt:input.obj
 0001:00023373       ?process_literal_character@?$input_processor@DV?$string_input_adapter@D@__crt_stdio_input@@@__crt_stdio_input@@AAE_NXZ 10024373 f i libucrt:input.obj
 0001:000233a9       ?process_literal_character_tchar@?$input_processor@DV?$string_input_adapter@D@__crt_stdio_input@@@__crt_stdio_input@@AAE_ND@Z 100243a9 f i libucrt:input.obj
 0001:000233ff       ?process_state@?$input_processor@DV?$string_input_adapter@D@__crt_stdio_input@@@__crt_stdio_input@@AAE_NXZ 100243ff f i libucrt:input.obj
 0001:00023435       ?process_string_specifier@?$input_processor@DV?$string_input_adapter@D@__crt_stdio_input@@@__crt_stdio_input@@AAE_NW4conversion_mode@2@@Z 10024435 f i libucrt:input.obj
 0001:0002347d       ?process_whitespace@?$input_processor@DV?$string_input_adapter@D@__crt_stdio_input@@@__crt_stdio_input@@AAE_NXZ 1002447d f i libucrt:input.obj
 0001:0002349a       ?restore_state@?$input_adapter_character_source@V?$string_input_adapter@D@__crt_stdio_input@@@__crt_strtox@@QAE_N_K@Z 1002449a f i libucrt:input.obj
 0001:000234bf       ?scan_conversion_specifier@?$format_string_parser@D@__crt_stdio_input@@AAE_NXZ 100244bf f i libucrt:input.obj
 0001:0002362a       ?scan_optional_field_width@?$format_string_parser@D@__crt_stdio_input@@AAE_NXZ 1002462a f i libucrt:input.obj
 0001:000236c9       ?scan_optional_length_modifier@?$format_string_parser@D@__crt_stdio_input@@AAEXXZ 100246c9 f i libucrt:input.obj
 0001:000237e9       ?scan_optional_literal_character_trail_bytes_tchar@?$format_string_parser@D@__crt_stdio_input@@AAE_ND@Z 100247e9 f i libucrt:input.obj
 0001:0002383e       ?scan_optional_wide_modifier@?$format_string_parser@D@__crt_stdio_input@@AAEXXZ 1002483e f i libucrt:input.obj
 0001:0002385c       ?scan_scanset_range@?$format_string_parser@D@__crt_stdio_input@@AAE_NXZ 1002485c f i libucrt:input.obj
 0001:00023963       ?set@?$scanset_buffer@E@__crt_stdio_input@@QAEXE@Z 10024963 f i libucrt:input.obj
 0001:0002398e       ?set_wide_for_c_s_or_scanset@?$format_string_parser@D@__crt_stdio_input@@AAEXXZ 1002498e f i libucrt:input.obj
 0001:000239ae       ?test@?$scanset_buffer@E@__crt_stdio_input@@QBE_NE@Z 100249ae f i libucrt:input.obj
 0001:000239df       ?to_floating_point_length@__crt_stdio_input@@YAIW4length_modifier@1@@Z 100249df f i libucrt:input.obj
 0001:00023a02       ?to_integer_length@__crt_stdio_input@@YAIW4length_modifier@1@@Z 10024a02 f i libucrt:input.obj
 0001:00023a5a       ?unget@?$input_adapter_character_source@V?$string_input_adapter@D@__crt_stdio_input@@@__crt_strtox@@QAEXD@Z 10024a5a f i libucrt:input.obj
 0001:00023a9b       ?unget@?$string_input_adapter@D@__crt_stdio_input@@QAEXH@Z 10024a9b f i libucrt:input.obj
 0001:00023aba       ?validate@?$format_string_parser@D@__crt_stdio_input@@QBE_NXZ 10024aba f i libucrt:input.obj
 0001:00023ad6       ?validate@?$input_adapter_character_source@V?$string_input_adapter@D@__crt_stdio_input@@@__crt_strtox@@QBE_NXZ 10024ad6 f i libucrt:input.obj
 0001:00023af7       ?validate@?$string_input_adapter@D@__crt_stdio_input@@QAE_NXZ 10024af7 f i libucrt:input.obj
 0001:00023b19       ?write_character@?$input_processor@DV?$string_input_adapter@D@__crt_stdio_input@@@__crt_stdio_input@@AAE_NQA_WIAAPA_WAAID@Z 10024b19 f i libucrt:input.obj
 0001:00023b8a       ?write_integer@?$input_processor@DV?$string_input_adapter@D@__crt_stdio_input@@@__crt_stdio_input@@AAE_N_K_N@Z 10024b8a f i libucrt:input.obj
 0001:00023c01       ___stdio_common_vsscanf    10024c01 f   libucrt:input.obj
 0001:00023c25       ___acrt_initialize_new_handler 10024c25 f   libucrt:new_handler.obj
 0001:00023c39       __callnewh                 10024c39 f   libucrt:new_handler.obj
 0001:00023c7d       __query_new_handler        10024c7d f   libucrt:new_handler.obj
 0001:00023ccf       __seh_filter_dll           10024ccf f   libucrt:exception_filter.obj
 0001:00023cef       __seh_filter_exe           10024cef f   libucrt:exception_filter.obj
 0001:0002407d       ___acrt_initialize_thread_local_exit_callback 1002507d f   libucrt:exit.obj
 0001:0002408c       __cexit                    1002508c f   libucrt:exit.obj
 0001:0002409b       __exit                     1002509b f   libucrt:exit.obj
 0001:000240b1       __is_c_termination_complete 100250b1 f   libucrt:exit.obj
 0001:00024350       ___acrt_allocate_buffer_for_argv 10025350 f   libucrt:argv_parsing.obj
 0001:000243a5       __configure_narrow_argv    100253a5 f   libucrt:argv_parsing.obj
 0001:000245b7       ??$uninitialize@A6AXAAPAPA_W@Z@?$dual_state_global@PAPA_W@__crt_state_management@@QAEXA6AXAAPAPA_W@Z@Z 100255b7 f i libucrt:environment_initialization.obj
 0001:000245b7       ??$uninitialize@A6AXAAPAPAD@Z@?$dual_state_global@PAPAD@__crt_state_management@@QAEXA6AXAAPAPAD@Z@Z 100255b7 f i libucrt:environment_initialization.obj
 0001:0002462d       ?initialize@?$dual_state_global@P6AHI@Z@__crt_state_management@@QAEXQ6AHI@Z@Z 1002562d f i libucrt:new_handler.obj
 0001:0002462d       ?initialize@?$dual_state_global@P6AHPAU_exception@@@Z@__crt_state_management@@QAEXQ6AHPAU_exception@@@Z@Z 1002562d f i libucrt:matherr.obj
 0001:0002462d       ?initialize@?$dual_state_global@PAPAD@__crt_state_management@@QAEXQAPAD@Z 1002562d f i libucrt:environment_initialization.obj
 0001:0002462d       ?initialize@?$dual_state_global@P6AXPB_W00II@Z@__crt_state_management@@QAEXQ6AXPB_W00II@Z@Z 1002562d f i libucrt:invalid_parameter.obj
 0001:0002462d       ?initialize@?$dual_state_global@PAU__crt_locale_data@@@__crt_state_management@@QAEXQAU__crt_locale_data@@@Z 1002562d f i libucrt:initialization.obj
 0001:0002462d       ?initialize@?$dual_state_global@P6AXH@Z@__crt_state_management@@QAEXQ6AXH@Z@Z 1002562d f i libucrt:signal.obj
 0001:0002465e       ___dcrt_get_or_create_narrow_environment_nolock 1002565e f   libucrt:environment_initialization.obj
 0001:00024663       ___dcrt_uninitialize_environments_nolock 10025663 f   libucrt:environment_initialization.obj
 0001:0002469a       __initialize_narrow_environment 1002569a f   libucrt:environment_initialization.obj
 0001:0002469f       ??$?RV<lambda_800076c951b434888f4765a74a194fcc>@@AAV<lambda_4e60a939b0d047cfe11ddc22648dfba9>@@V<lambda_6dbb1268764f43b569ce7b67e331d33a>@@@?$__crt_seh_guarded_call@H@@QAEH$$QAV<lambda_800076c951b434888f4765a74a194fcc>@@AAV<lambda_4e60a939b0d047cfe11ddc22648dfba9>@@$$QAV<lambda_6dbb1268764f43b569ce7b67e331d33a>@@@Z 1002569f f i libucrt:onexit.obj
 0001:000246f0       ??$?RV<lambda_995298e7d72eb4c2aab26c0585b3abe5>@@AAV<lambda_275893d493268fdec8709772e3fcec0e>@@V<lambda_293819299cbf9a7022e18b56a874bb5c>@@@?$__crt_seh_guarded_call@H@@QAEH$$QAV<lambda_995298e7d72eb4c2aab26c0585b3abe5>@@AAV<lambda_275893d493268fdec8709772e3fcec0e>@@$$QAV<lambda_293819299cbf9a7022e18b56a874bb5c>@@@Z 100256f0 f i libucrt:onexit.obj
 0001:00024741       ??$__acrt_lock_and_call@V<lambda_275893d493268fdec8709772e3fcec0e>@@@@YAHW4__acrt_lock_id@@$$QAV<lambda_275893d493268fdec8709772e3fcec0e>@@@Z 10025741 f i libucrt:onexit.obj
 0001:00024769       ??$__acrt_lock_and_call@V<lambda_4e60a939b0d047cfe11ddc22648dfba9>@@@@YAHW4__acrt_lock_id@@$$QAV<lambda_4e60a939b0d047cfe11ddc22648dfba9>@@@Z 10025769 f i libucrt:onexit.obj
 0001:00024791       ??$__crt_fast_encode_pointer@P6AHXZ@@YAP6AHXZQ6AHXZ@Z 10025791 f i libucrt:onexit.obj
 0001:00024a11       __crt_atexit               10025a11 f   libucrt:onexit.obj
 0001:00024a27       __execute_onexit_table     10025a27 f   libucrt:onexit.obj
 0001:00024a44       __initialize_onexit_table  10025a44 f   libucrt:onexit.obj
 0001:00024a81       __register_onexit_function 10025a81 f   libucrt:onexit.obj
 0001:00024ad1       ___acrt_uninitialize_command_line 10025ad1 f   libucrt:argv_data.obj
 0001:00024b99       ___acrt_initialize         10025b99 f   libucrt:initialization.obj
 0001:00024bab       ___acrt_thread_attach      10025bab f   libucrt:initialization.obj
 0001:00024bb6       ___acrt_thread_detach      10025bb6 f   libucrt:initialization.obj
 0001:00024bbe       ___acrt_uninitialize       10025bbe f   libucrt:initialization.obj
 0001:00024bd0       ___acrt_uninitialize_critical 10025bd0 f   libucrt:initialization.obj
 0001:00024be2       __initterm                 10025be2 f   libucrt:initterm.obj
 0001:00024c3e       __initterm_e               10025c3e f   libucrt:initterm.obj
 0001:00024c83       _terminate                 10025c83 f   libucrt:terminate.obj
 0001:00024cbf       _strcpy_s                  10025cbf f   libucrt:strcpy_s.obj
 0001:00024d19       __free_base                10025d19 f   libucrt:free_base.obj
 0001:00024d53       __malloc_base              10025d53 f   libucrt:malloc_base.obj
 0001:00024da1       _abort                     10025da1 f   libucrt:abort.obj
 0001:00024de4       __calloc_base              10025de4 f   libucrt:calloc_base.obj
 0001:00024e41       ??$?RV<lambda_3518db117f0e7cdb002338c5d3c47b6c>@@AAV<lambda_b2ea41f6bbb362cd97d94c6828d90b61>@@V<lambda_abdedf541bb04549bc734292b4a045d4>@@@?$__crt_seh_guarded_call@X@@QAEX$$QAV<lambda_3518db117f0e7cdb002338c5d3c47b6c>@@AAV<lambda_b2ea41f6bbb362cd97d94c6828d90b61>@@$$QAV<lambda_abdedf541bb04549bc734292b4a045d4>@@@Z 10025e41 f i libucrt:per_thread_data.obj
 0001:00024e91       ??$?RV<lambda_51b6e8b1eb166f2a3faf91f424b38130>@@AAV<lambda_6250bd4b2a391816dd638c3bf72b0bcb>@@V<lambda_0b5a4a3e68152e1d9b943535f5f47bed>@@@?$__crt_seh_guarded_call@X@@QAEX$$QAV<lambda_51b6e8b1eb166f2a3faf91f424b38130>@@AAV<lambda_6250bd4b2a391816dd638c3bf72b0bcb>@@$$QAV<lambda_0b5a4a3e68152e1d9b943535f5f47bed>@@@Z 10025e91 f i libucrt:per_thread_data.obj
 0001:00024ef2       ??$?RV<lambda_5b71d36f03204c0beab531769a5b5694>@@AAV<lambda_be2b3da3f62db62e9dad5dc70221a656>@@V<lambda_8f9ce462984622f9bf76b59e2aaaf805>@@@?$__crt_seh_guarded_call@X@@QAEX$$QAV<lambda_5b71d36f03204c0beab531769a5b5694>@@AAV<lambda_be2b3da3f62db62e9dad5dc70221a656>@@$$QAV<lambda_8f9ce462984622f9bf76b59e2aaaf805>@@@Z 10025ef2 f i libucrt:per_thread_data.obj
 0001:00024f3d       ??$?RV<lambda_9df27f884b057bc3edfc946cb5b7cf47>@@AAV<lambda_e69574bed617af4e071282c136b37893>@@V<lambda_cc0d902bcbbeb830f749456577db4721>@@@?$__crt_seh_guarded_call@X@@QAEX$$QAV<lambda_9df27f884b057bc3edfc946cb5b7cf47>@@AAV<lambda_e69574bed617af4e071282c136b37893>@@$$QAV<lambda_cc0d902bcbbeb830f749456577db4721>@@@Z 10025f3d f i libucrt:per_thread_data.obj
 0001:00024f85       ??$__acrt_lock_and_call@V<lambda_6250bd4b2a391816dd638c3bf72b0bcb>@@@@YAXW4__acrt_lock_id@@$$QAV<lambda_6250bd4b2a391816dd638c3bf72b0bcb>@@@Z 10025f85 f i libucrt:per_thread_data.obj
 0001:00024fad       ??$__acrt_lock_and_call@V<lambda_b2ea41f6bbb362cd97d94c6828d90b61>@@@@YAXW4__acrt_lock_id@@$$QAV<lambda_b2ea41f6bbb362cd97d94c6828d90b61>@@@Z 10025fad f i libucrt:per_thread_data.obj
 0001:00024fd5       ??$__acrt_lock_and_call@V<lambda_be2b3da3f62db62e9dad5dc70221a656>@@@@YAXW4__acrt_lock_id@@$$QAV<lambda_be2b3da3f62db62e9dad5dc70221a656>@@@Z 10025fd5 f i libucrt:per_thread_data.obj
 0001:00024ffd       ??$__acrt_lock_and_call@V<lambda_e69574bed617af4e071282c136b37893>@@@@YAXW4__acrt_lock_id@@$$QAV<lambda_e69574bed617af4e071282c136b37893>@@@Z 10025ffd f i libucrt:per_thread_data.obj
 0001:000251b3       ___acrt_freeptd            100261b3 f   libucrt:per_thread_data.obj
 0001:000251df       ___acrt_getptd             100261df f   libucrt:per_thread_data.obj
 0001:00025263       ___acrt_getptd_noexit      10026263 f   libucrt:per_thread_data.obj
 0001:000252e8       ___acrt_initialize_ptd     100262e8 f   libucrt:per_thread_data.obj
 0001:00025314       ___acrt_uninitialize_ptd   10026314 f   libucrt:per_thread_data.obj
 0001:0002532e       ___acrt_update_locale_info 1002632e f   libucrt:locale_update.obj
 0001:0002535b       ___acrt_update_multibyte_info 1002635b f   libucrt:locale_update.obj
 0001:00025388       ___acrt_set_locale_changed 10026388 f   libucrt:wsetlocale.obj
 0001:00025393       ___acrt_uninitialize_locale 10026393 f   libucrt:wsetlocale.obj
 0001:0002554a       ___acrt_CompareStringEx@36 1002654a f   libucrt:winapi_thunks.obj
 0001:000255be       ___acrt_FlsAlloc@4         100265be f   libucrt:winapi_thunks.obj
 0001:00025614       ___acrt_FlsFree@4          10026614 f   libucrt:winapi_thunks.obj
 0001:0002566a       ___acrt_FlsGetValue@4      1002666a f   libucrt:winapi_thunks.obj
 0001:000256c0       ___acrt_FlsSetValue@8      100266c0 f   libucrt:winapi_thunks.obj
 0001:00025719       ___acrt_InitializeCriticalSectionEx@12 10026719 f   libucrt:winapi_thunks.obj
 0001:0002577b       ___acrt_LCMapStringEx@36   1002677b f   libucrt:winapi_thunks.obj
 0001:00025803       ___acrt_LocaleNameToLCID@8 10026803 f   libucrt:winapi_thunks.obj
 0001:0002585f       ___acrt_MessageBoxW@16     1002685f f   libucrt:winapi_thunks.obj
 0001:000258a8       ___acrt_RoInitialize@4     100268a8 f   libucrt:winapi_thunks.obj
 0001:000258fa       ___acrt_RoUninitialize@0   100268fa f   libucrt:winapi_thunks.obj
 0001:00025943       ___acrt_can_show_message_box 10026943 f   libucrt:winapi_thunks.obj
 0001:0002595c       ___acrt_get_parent_window  1002695c f   libucrt:winapi_thunks.obj
 0001:000259db       ___acrt_initialize_winapi_thunks 100269db f   libucrt:winapi_thunks.obj
 0001:00025a01       ___acrt_is_interactive     10026a01 f   libucrt:winapi_thunks.obj
 0001:00025aa7       ___acrt_is_packaged_app    10026aa7 f   libucrt:winapi_thunks.obj
 0001:00025b2e       ___acrt_uninitialize_winapi_thunks 10026b2e f   libucrt:winapi_thunks.obj
 0001:00025b64       __fcloseall                10026b64 f   libucrt:closeall.obj
 0001:00025c04       ___acrt_stdio_flush_nolock 10026c04 f   libucrt:fflush.obj
 0001:00025c6a       __fflush_nolock            10026c6a f   libucrt:fflush.obj
 0001:00025cb1       __flushall                 10026cb1 f   libucrt:fflush.obj
 0001:00025d92       _fflush                    10026d92 f   libucrt:fflush.obj
 0001:00025deb       ___acrt_stdio_free_buffer_nolock 10026deb f   libucrt:_freebuf.obj
 0001:00025f95       ___acrt_initialize_lowio   10026f95 f   libucrt:ioinit.obj
 0001:00025feb       ___acrt_uninitialize_lowio 10026feb f   libucrt:ioinit.obj
 0001:00026017       __realloc_base             10027017 f   libucrt:realloc_base.obj
 0001:00026080       __isdigit_l                10027080 f i libucrt:_ctype.obj
 0001:000260b8       __isspace_l                100270b8 f i libucrt:_ctype.obj
 0001:000260f0       _isdigit                   100270f0 f i libucrt:_ctype.obj
 0001:0002611d       _isspace                   1002711d f i libucrt:_ctype.obj
 0001:0002614a       _strtol                    1002714a f   libucrt:strtox.obj
 0001:00026176       _strtoull                  10027176 f   libucrt:strtox.obj
 0001:000261a2       _wcstol                    100271a2 f   libucrt:strtox.obj
 0001:000261ce       __mbtowc_l                 100271ce f   libucrt:mbtowc.obj
 0001:000262c8       _mbtowc                    100272c8 f   libucrt:mbtowc.obj
 0001:000262e2       __wctomb_s_l               100272e2 f   libucrt:wctomb.obj
 0001:00026403       _wctomb_s                  10027403 f   libucrt:wctomb.obj
 0001:00026420       _strnlen                   10027420 f   libucrt:strnlen.obj
 0001:00026547       _wcsnlen                   10027547 f   libucrt:strnlen.obj
 0001:000266fe       ?__acrt_fp_classify@@YA?AW4__acrt_fp_class@@ABN@Z 100276fe f i libucrt:cvt.obj
 0001:0002676a       ?__acrt_fp_is_negative@@YA_NABN@Z 1002776a f i libucrt:cvt.obj
 0001:00026fc9       ___acrt_fp_format          10027fc9 f   libucrt:cvt.obj
 0001:00027145       __fputwc_nolock            10028145 f   libucrt:fputwc.obj
 0001:0002726b       __fileno                   1002826b f   libucrt:fileno.obj
 0001:00027291       __fputc_nolock             10028291 f   libucrt:fputc.obj
 0001:000272ba       __get_printf_count_output  100282ba f   libucrt:printf_count_output.obj
 0001:000272cf       ___acrt_stdio_begin_temporary_buffering_nolock 100282cf f   libucrt:_sftbuf.obj
 0001:00027384       ___acrt_stdio_end_temporary_buffering_nolock 10028384 f   libucrt:_sftbuf.obj
 0001:000273bd       __fwrite_nolock            100283bd f   libucrt:fwrite.obj
 0001:00027536       ___pctype_func             10028536 f   libucrt:ctype.obj
 0001:0002755c       _iswctype                  1002855c f   libucrt:iswctype.obj
 0001:000275bb       __isctype_l                100285bb f   libucrt:isctype.obj
 0001:0002768d       _wcscpy_s                  1002868d f   libucrt:wcscpy_s.obj
 0001:000276f1       __strnicoll                100286f1 f   libucrt:strnicol.obj
 0001:0002771a       __strnicoll_l              1002871a f   libucrt:strnicol.obj
 0001:000277e4       ___acrt_initialize_locks   100287e4 f   libucrt:locks.obj
 0001:00027825       ___acrt_lock               10028825 f   libucrt:locks.obj
 0001:0002783c       ___acrt_uninitialize_locks 1002883c f   libucrt:locks.obj
 0001:0002786d       ___acrt_unlock             1002886d f   libucrt:locks.obj
 0001:00027884       __query_app_type           10028884 f   libucrt:report_runtime_error.obj
 0001:00027977       __itow_s                   10028977 f   libucrt:xtoa.obj
 0001:000279ac       __set_error_mode           100289ac f   libucrt:set_error_mode.obj
 0001:000279eb       _wcscat_s                  100289eb f   libucrt:wcscat_s.obj
 0001:00027b49       _wcsncat_s                 10028b49 f   libucrt:wcsncat_s.obj
 0001:00027c4f       ___acrt_show_wide_message_box 10028c4f f   libucrt:crtmbox.obj
 0001:00027c5a       ??$?RV<lambda_d92cfe8357b99225085016881b624cb0>@@AAV<lambda_b721fa326cdb32351d23dfa67958c160>@@V<lambda_42d75b0848218ec137fa420c8ba9fdf9>@@@?$__crt_seh_guarded_call@H@@QAEH$$QAV<lambda_d92cfe8357b99225085016881b624cb0>@@AAV<lambda_b721fa326cdb32351d23dfa67958c160>@@$$QAV<lambda_42d75b0848218ec137fa420c8ba9fdf9>@@@Z 10028c5a f i libucrt:setvbuf.obj
 0001:00027cab       ??$__acrt_lock_stream_and_call@V<lambda_b721fa326cdb32351d23dfa67958c160>@@@@YAHQAU_iobuf@@$$QAV<lambda_b721fa326cdb32351d23dfa67958c160>@@@Z 10028cab f i libucrt:setvbuf.obj
 0001:00027da0       _setvbuf                   10028da0 f   libucrt:setvbuf.obj
 0001:00027e16       ??$?RV<lambda_a048d3beccc847880fc8490e18b82769>@@AAV<lambda_ec61778202f4f5fc7e7711acc23c3bca>@@V<lambda_f7496a158712204296dd6628a163878e>@@@?$__crt_seh_guarded_call@P6AXH@Z@@QAEP6AXH@Z$$QAV<lambda_a048d3beccc847880fc8490e18b82769>@@AAV<lambda_ec61778202f4f5fc7e7711acc23c3bca>@@$$QAV<lambda_f7496a158712204296dd6628a163878e>@@@Z 10028e16 f i libucrt:signal.obj
 0001:00027e70       ??$__acrt_lock_and_call@V<lambda_ec61778202f4f5fc7e7711acc23c3bca>@@@@YAP6AXH@ZW4__acrt_lock_id@@$$QAV<lambda_ec61778202f4f5fc7e7711acc23c3bca>@@@Z 10028e70 f i libucrt:signal.obj
 0001:00027f02       ___acrt_get_sigabrt_handler 10028f02 f   libucrt:signal.obj
 0001:00027f19       ___acrt_initialize_signal_handlers 10028f19 f   libucrt:signal.obj
 0001:00027f54       ___fpecode                 10028f54 f   libucrt:signal.obj
 0001:00027f5d       _raise                     10028f5d f   libucrt:signal.obj
 0001:00028165       ___acrt_strtok_s_novalidation 10029165 f   libucrt:strtok_s.obj
 0001:00028244       __isleadbyte_l             10029244 f i libucrt:_wctype.obj
 0001:0002849a       ___acrt_LCMapStringA       1002949a f   libucrt:lcmapstringa.obj
 0001:000284e5       __freea_crt                100294e5 f i libucrt:lcmapstringa.obj
 0001:00028505       _fegetround                10029505 f   libucrt:fegetround.obj
 0001:000288d2       ??1?$argument_list@D@?A0xb0e4b824@@QAE@XZ 100298d2 f i libucrt:argv_wildcards.obj
 0001:000288f7       ?append@?$argument_list@D@?A0xb0e4b824@@QAEHQAD@Z 100298f7 f i libucrt:argv_wildcards.obj
 0001:0002892c       ?expand_if_necessary@?$argument_list@D@?A0xb0e4b824@@AAEHXZ 1002992c f i libucrt:argv_wildcards.obj
 0001:000289b3       ___acrt_expand_narrow_argv_wildcards 100299b3 f   libucrt:argv_wildcards.obj
 0001:000289be       ??$?RV<lambda_978dc153c237d78434369da87b74ff60>@@AAV<lambda_ad1ced32f4ac17aa236e5ef05d6b3b7c>@@V<lambda_4a8533e2866a575feecb8298ce776b0d>@@@?$__crt_seh_guarded_call@X@@QAEX$$QAV<lambda_978dc153c237d78434369da87b74ff60>@@AAV<lambda_ad1ced32f4ac17aa236e5ef05d6b3b7c>@@$$QAV<lambda_4a8533e2866a575feecb8298ce776b0d>@@@Z 100299be f i libucrt:mbctype.obj
 0001:00028a01       ??$__acrt_lock_and_call@V<lambda_ad1ced32f4ac17aa236e5ef05d6b3b7c>@@@@YAXW4__acrt_lock_id@@$$QAV<lambda_ad1ced32f4ac17aa236e5ef05d6b3b7c>@@@Z 10029a01 f i libucrt:mbctype.obj
 0001:00028e98       ___acrt_initialize_multibyte 10029e98 f   libucrt:mbctype.obj
 0001:00028eb6       ___acrt_update_thread_multibyte_data 10029eb6 f   libucrt:mbctype.obj
 0001:00028f58       __setmbcp_nolock           10029f58 f   libucrt:mbctype.obj
 0001:000291a2       __ismbblead                1002a1a2 f   libucrt:ismbbyte.obj
 0001:000291ba       ___acrt_initialize_command_line 1002a1ba f   libucrt:argv_data.obj
 0001:0002920a       ___dcrt_get_narrow_environment_from_os 1002a20a f   libucrt:get_environment_from_os.obj
 0001:000295cd       ___dcrt_set_variable_in_narrow_environment_nolock 1002a5cd f   libucrt:setenv.obj
 0001:000295d8       __recalloc                 1002a5d8 f   libucrt:recalloc.obj
 0001:000295e3       __recalloc_base            1002a5e3 f   libucrt:recalloc.obj
 0001:00029650       ___acrt_initialize_heap    1002a650 f   libucrt:heap_handle.obj
 0001:00029661       ___acrt_uninitialize_heap  1002a661 f   libucrt:heap_handle.obj
 0001:0002966b       ___acrt_execute_initializers 1002a66b f   libucrt:shared_initialization.obj
 0001:000296ee       ___acrt_execute_uninitializers 1002a6ee f   libucrt:shared_initialization.obj
 0001:0002973b       ___acrt_has_user_matherr   1002a73b f   libucrt:matherr.obj
 0001:00029754       ___acrt_initialize_user_matherr 1002a754 f   libucrt:matherr.obj
 0001:00029768       ___acrt_invoke_user_matherr 1002a768 f   libucrt:matherr.obj
 0001:000297b1       __query_new_mode           1002a7b1 f   libucrt:new_mode.obj
 0001:000297b7       ___acrt_add_locale_ref     1002a7b7 f   libucrt:locale_refcounting.obj
 0001:00029834       ___acrt_free_locale        1002a834 f   libucrt:locale_refcounting.obj
 0001:0002997e       ___acrt_locale_add_lc_time_reference 1002a97e f   libucrt:locale_refcounting.obj
 0001:000299a7       ___acrt_locale_free_lc_time_if_unreferenced 1002a9a7 f   libucrt:locale_refcounting.obj
 0001:000299d7       ___acrt_locale_release_lc_time_reference 1002a9d7 f   libucrt:locale_refcounting.obj
 0001:00029a00       ___acrt_release_locale_ref 1002aa00 f   libucrt:locale_refcounting.obj
 0001:00029a81       ___acrt_update_thread_locale_data 1002aa81 f   libucrt:locale_refcounting.obj
 0001:00029af8       __updatetlocinfoEx_nolock  1002aaf8 f   libucrt:locale_refcounting.obj
 0001:00029b48       ___acrt_locale_free_monetary 1002ab48 f   libucrt:initmon.obj
 0001:00029c46       ___acrt_locale_free_numeric 1002ac46 f   libucrt:initnum.obj
 0001:00029ceb       ___acrt_locale_free_time   1002aceb f   libucrt:inittime.obj
 0001:00029dcf       ___acrt_GetStringTypeA     1002adcf f   libucrt:getstringtypea.obj
 0001:00029fa8       ___acrt_DownlevelLocaleNameToLCID 1002afa8 f   libucrt:lcidtoname_downlevel.obj
 0001:00029fd4       __fclose_nolock            1002afd4 f   libucrt:fclose.obj
 0001:0002a04a       _fclose                    1002b04a f   libucrt:fclose.obj
 0001:0002a0ca       ??$?RV<lambda_61cee617f5178ae960314fd4d05640a0>@@AAV<lambda_6978c1fb23f02e42e1d9e99668cc68aa>@@V<lambda_9cd88cf8ad10232537feb2133f08c833>@@@?$__crt_seh_guarded_call@H@@QAEH$$QAV<lambda_61cee617f5178ae960314fd4d05640a0>@@AAV<lambda_6978c1fb23f02e42e1d9e99668cc68aa>@@$$QAV<lambda_9cd88cf8ad10232537feb2133f08c833>@@@Z 1002b0ca f i libucrt:commit.obj
 0001:0002a162       ??$__acrt_lowio_lock_fh_and_call@V<lambda_6978c1fb23f02e42e1d9e99668cc68aa>@@@@YAHH$$QAV<lambda_6978c1fb23f02e42e1d9e99668cc68aa>@@@Z 1002b162 f i libucrt:commit.obj
 0001:0002a18a       __commit                   1002b18a f   libucrt:commit.obj
 0001:0002a789       __write                    1002b789 f   libucrt:write.obj
 0001:0002a874       __write_nolock             1002b874 f   libucrt:write.obj
 0001:0002aa80       ___acrt_lowio_create_handle_array 1002ba80 f   libucrt:osfinfo.obj
 0001:0002aafa       ___acrt_lowio_destroy_handle_array 1002bafa f   libucrt:osfinfo.obj
 0001:0002ab2f       ___acrt_lowio_ensure_fh_exists 1002bb2f f   libucrt:osfinfo.obj
 0001:0002abc7       ___acrt_lowio_lock_fh      1002bbc7 f   libucrt:osfinfo.obj
 0001:0002abea       ___acrt_lowio_unlock_fh    1002bbea f   libucrt:osfinfo.obj
 0001:0002ac0d       __free_osfhnd              1002bc0d f   libucrt:osfinfo.obj
 0001:0002ac9e       __get_osfhandle            1002bc9e f   libucrt:osfinfo.obj
 0001:0002ad08       ___acrt_fp_strflt_to_string 1002bd08 f   libucrt:_fptostr.obj
 0001:0002adc4       ??0scoped_fp_state_reset@?A0x48fbfdd4@@QAE@XZ 1002bdc4 f i libucrt:cfout.obj
 0001:0002adee       ___acrt_fltout             1002bdee f   libucrt:cfout.obj
 0001:0002c550       ___acrt_stdio_flush_and_write_narrow_nolock 1002d550 f   libucrt:_flsbuf.obj
 0001:0002c55b       ___acrt_stdio_flush_and_write_wide_nolock 1002d55b f   libucrt:_flsbuf.obj
 0001:0002c566       __isatty                   1002d566 f   libucrt:isatty.obj
 0001:0002c5bc       __strnicmp                 1002d5bc f   libucrt:strnicmp.obj
 0001:0002c628       __strnicmp_l               1002d628 f   libucrt:strnicmp.obj
 0001:0002c987       ___acrt_CompareStringA     1002d987 f   libucrt:comparestringa.obj
 0001:0002c9cf       ___strncnt                 1002d9cf f   libucrt:strncnt.obj
 0001:0002c9eb       ___acrt_stdio_allocate_buffer_nolock 1002d9eb f   libucrt:_getbuf.obj
 0001:0002cceb       __getfpcontrolword         1002dceb f   libucrt:_fenvutils.obj
 0001:0002cd2e       __getfpstatusword          1002dd2e f   libucrt:_fenvutils.obj
 0001:0002cdd6       __setfpcontrolword         1002ddd6 f   libucrt:_fenvutils.obj
 0001:0002ce56       __setfpstatusword          1002de56 f   libucrt:_fenvutils.obj
 0001:0002cfc0       _qsort                     1002dfc0 f   libucrt:qsort.obj
 0001:0002d40b       _strncpy_s                 1002e40b f   libucrt:strncpy_s.obj
 0001:0002d420       _strpbrk                   1002e420 f   libucrt:strpbrk.obj
 0001:0002d460       __mbsdec                   1002e460 f   libucrt:mbsdec.obj
 0001:0002d477       __mbsdec_l                 1002e477 f   libucrt:mbsdec.obj
 0001:0002d513       __msize                    1002e513 f   libucrt:msize.obj
 0001:0002d546       ??$?RV<lambda_123407a5e2ac06da108355a851863b7a>@@AAV<lambda_2fe9b910cf3cbf4a0ab98a02ba45b3ec>@@V<lambda_ae55bdf541ad94d75914d381c370e64d>@@@?$__crt_seh_guarded_call@H@@QAEH$$QAV<lambda_123407a5e2ac06da108355a851863b7a>@@AAV<lambda_2fe9b910cf3cbf4a0ab98a02ba45b3ec>@@$$QAV<lambda_ae55bdf541ad94d75914d381c370e64d>@@@Z 1002e546 f i libucrt:close.obj
 0001:0002d5c8       ??$__acrt_lowio_lock_fh_and_call@V<lambda_2fe9b910cf3cbf4a0ab98a02ba45b3ec>@@@@YAHH$$QAV<lambda_2fe9b910cf3cbf4a0ab98a02ba45b3ec>@@@Z 1002e5c8 f i libucrt:close.obj
 0001:0002d5f0       __close                    1002e5f0 f   libucrt:close.obj
 0001:0002d66f       __close_nolock             1002e66f f   libucrt:close.obj
 0001:0002d70b       ?__acrt_stdio_free_stream@@YAXV__crt_stdio_stream@@@Z 1002e70b f   libucrt:stream.obj
 0001:0002d8c9       __lseeki64                 1002e8c9 f   libucrt:lseek.obj
 0001:0002d8e4       __lseeki64_nolock          1002e8e4 f   libucrt:lseek.obj
 0001:0002d8ff       __putwch_nolock            1002e8ff f   libucrt:putwch.obj
 0001:0002d944       _fegetenv                  1002e944 f   libucrt:fegetenv.obj
 0001:0002d961       _fesetenv                  1002e961 f   libucrt:fesetenv.obj
 0001:0002d9aa       _feholdexcept              1002e9aa f   libucrt:feholdexcept.obj
 0001:0002da00       _log10                     1002ea00 f   libucrt:log10.obj
 0001:0002da40       __CIlog10                  1002ea40 f   libucrt:log10.obj
 0001:0002da7b       __CIlog10_default          1002ea7b f   libucrt:log10.obj
 0001:0002da8f       __log10_default            1002ea8f     libucrt:log10.obj
 0001:0002db50       _ceil                      1002eb50 f   libucrt:ceil_pentium4.obj
 0001:0002db90       __ceil_pentium4            1002eb90 f   libucrt:ceil_pentium4.obj
 0001:0002dc70       ___ascii_strnicmp          1002ec70 f   libucrt:_strnicm.obj
 0001:0002dcd1       ___dcrt_lowio_initialize_console_output 1002ecd1 f   libucrt:initcon.obj
 0001:0002dcf0       ___dcrt_terminate_console_output 1002ecf0 f   libucrt:initcon.obj
 0001:0002dd07       __clearfp                  1002ed07 f   libucrt:ieee87.obj
 0001:0002dde5       ___acrt_initialize_sse2    1002ede5 f   libucrt:mathfcns.obj
 0001:0002de00       __CIlog10_pentium4         1002ee00 f   libucrt:log10_pentium4.obj
 0001:0002de18       __log10_pentium4           1002ee18     libucrt:log10_pentium4.obj
 0001:0002e0a1       __fFEXP                    1002f0a1     libucrt:87tran.obj
 0001:0002e0f8       __rtinfpopse               1002f0f8     libucrt:87tran.obj
 0001:0002e0fa       __rtinfnpopse              1002f0fa     libucrt:87tran.obj
 0001:0002e10a       __fFLN                     1002f10a     libucrt:87tran.obj
 0001:0002e1bf       __rtinfpop                 1002f1bf     libucrt:87tran.obj
 0001:0002e1c1       __rtinfnpop                1002f1c1     libucrt:87tran.obj
 0001:0002e1de       __ffexpm1                  1002f1de     libucrt:87tran.obj
 0001:0002e290       __trandisp1                1002f290 f   libucrt:87disp.obj
 0001:0002e2f7       __trandisp2                1002f2f7 f   libucrt:87disp.obj
 0001:0002e383       __rttospopde               1002f383     libucrt:87disp.obj
 0001:0002e388       __rttospop                 1002f388     libucrt:87disp.obj
 0001:0002e38a       __rtnospop                 1002f38a     libucrt:87disp.obj
 0001:0002e38c       __rttosnpop                1002f38c     libucrt:87disp.obj
 0001:0002e38d       __rtnospopde               1002f38d     libucrt:87disp.obj
 0001:0002e394       __rtzeropop                1002f394     libucrt:87disp.obj
 0001:0002e396       __rtzeronpop               1002f396     libucrt:87disp.obj
 0001:0002e39b       __rtzerospop               1002f39b     libucrt:87disp.obj
 0001:0002e3a8       __rtonepop                 1002f3a8     libucrt:87disp.obj
 0001:0002e3aa       __rtonenpop                1002f3aa     libucrt:87disp.obj
 0001:0002e3af       __tosnan1                  1002f3af     libucrt:87disp.obj
 0001:0002e3da       __nosnan2                  1002f3da     libucrt:87disp.obj
 0001:0002e3dc       __tosnan2                  1002f3dc     libucrt:87disp.obj
 0001:0002e404       __nan2                     1002f404     libucrt:87disp.obj
 0001:0002e443       __rtindfpop                1002f443     libucrt:87disp.obj
 0001:0002e445       __rtindfnpop               1002f445     libucrt:87disp.obj
 0001:0002e456       __rttosnpopde              1002f456     libucrt:87disp.obj
 0001:0002e460       __rtatan2inf               1002f460     libucrt:87disp.obj
 0001:0002e47d       __rtchsifneg               1002f47d     libucrt:87disp.obj
 0001:0002e490       __twoToTOS                 1002f490 f   libucrt:common.obj
 0001:0002e4a5       __load_CW                  1002f4a5 f   libucrt:common.obj
 0001:0002e4bc       __convertTOStoQNaN         1002f4bc f   libucrt:common.obj
 0001:0002e4d5       __fload_withFB             1002f4d5 f   libucrt:common.obj
 0001:0002e518       __checkTOS_withFB          1002f518 f   libucrt:common.obj
 0001:0002e52e       __fast_exit                1002f52e f   libucrt:common.obj
 0001:0002e53b       __math_exit                1002f53b f   libucrt:common.obj
 0001:0002e565       __check_overflow_exit      1002f565 f   libucrt:common.obj
 0001:0002e579       __check_range_exit         1002f579 f   libucrt:common.obj
 0001:0002e620       __startTwoArgErrorHandling 1002f620 f   libucrt:genexcep.obj
 0001:0002e637       __startOneArgErrorHandling 1002f637 f   libucrt:genexcep.obj
 0001:0002e673       ___libm_error_support      1002f673 f   libucrt:libm_error.obj
 0001:0002e88b       __ceil_default             1002f88b f   libucrt:ceil.obj
 0001:0002e944       __clrfp                    1002f944 f   libucrt:fpctrl.obj
 0001:0002e957       __ctrlfp                   1002f957 f   libucrt:fpctrl.obj
 0001:0002e983       __set_statfp               1002f983 f   libucrt:fpctrl.obj
 0001:0002e9de       __statfp                   1002f9de f   libucrt:fpctrl.obj
 0001:0002e9f0       __d_inttype                1002f9f0 f   libucrt:powhlp.obj
 0001:0002ea5a       __powhlp                   1002fa5a f   libucrt:powhlp.obj
 0001:0002eb85       __87except                 1002fb85 f   libucrt:87except.obj
 0001:0002ec90       __frnd                     1002fc90 f   libucrt:frnd.obj
 0001:0002eca6       __errcode                  1002fca6 f   libucrt:fpexcept.obj
 0001:0002ecda       __except1                  1002fcda f   libucrt:fpexcept.obj
 0001:0002eda8       __handle_exc               1002fda8 f   libucrt:fpexcept.obj
 0001:0002ef88       __raise_exc                1002ff88 f   libucrt:fpexcept.obj
 0001:0002efab       __raise_exc_ex             1002ffab f   libucrt:fpexcept.obj
 0001:0002f29c       __set_errno_from_matherr   1003029c f   libucrt:fpexcept.obj
 0001:0002f2cb       __umatherr                 100302cb f   libucrt:fpexcept.obj
 0001:0002f36d       __decomp                   1003036d f   libucrt:util.obj
 0001:0002f441       __set_exp                  10030441 f   libucrt:util.obj
 0001:0002f470       __sptype                   10030470 f   libucrt:util.obj
 0001:0002f4ce       __fpclass                  100304ce f   libucrt:ieeemisc.obj
 0001:0002f572       _IsProcessorFeaturePresent@4 10030572 f   kernel32:KERNEL32.dll
 0001:0002f578       _RtlUnwind@16              10030578 f   kernel32:KERNEL32.dll
 0001:0002f57e       __EH_prolog3_catch         1003057e f   LIBCMT:ehprolg3.obj
 0001:0002f5c0       __FindPESection            100305c0 f   LIBCMT:pesect.obj
 0001:0002f610       __IsNonwritableInCurrentImage 10030610 f   LIBCMT:pesect.obj
 0001:0002f6d0       __ValidateImageBase        100306d0 f   LIBCMT:pesect.obj
 0001:0002f710       __aulldvrm                 10030710 f   LIBCMT:ulldvrm.obj
 0001:0002f7b0       __allmul                   100307b0 f   LIBCMT:llmul.obj
 0001:0002f7f0       __SEH_prolog4_GS           100307f0 f   LIBCMT:_sehprolg4gs_.obj
 0001:0002f839       __SEH_epilog4_GS           10030839 f   LIBCMT:_sehprolg4gs_.obj
 0001:0002f850       __allshl                   10030850 f   LIBCMT:llshl.obj
 0001:0002f870       __aullshr                  10030870 f   LIBCMT:ullshr.obj
 0001:0002f890       __alldvrm                  10030890 f   LIBCMT:lldvrm.obj
 0001:0002f970       __alloca_probe_16          10030970 f   LIBCMT:alloca16.obj
 0001:0002f986       __alloca_probe_8           10030986     LIBCMT:alloca16.obj
 0001:0002f9a0       __alloca_probe             100309a0 f   LIBCMT:chkstk.obj
 0001:0002f9a0       __chkstk                   100309a0 f   LIBCMT:chkstk.obj
 0001:0002f9d0       __ftol2_sse                100309d0 f   LIBCMT:_ftol2_.obj
 0001:0002f9d9       __ftol2_pentium4           100309d9 f   LIBCMT:_ftol2_.obj
 0001:0002f9ec       __ftol2_sse_excpt          100309ec f   LIBCMT:_ftol2_.obj
 0001:0002fa10       __ftol2                    10030a10 f   LIBCMT:_ftol2_.obj
 0001:0002fa90       _memcpy                    10030a90 f   libvcruntime:memcpy.obj
 0001:00030010       _strrchr                   10031010 f   libvcruntime:strrchr.obj
 0001:00030150       __aulldiv                  10031150 f   LIBCMT:ulldiv.obj
 0001:000301c0       __aullrem                  100311c0 f   LIBCMT:ullrem.obj
 0002:00000000       __imp__GetModuleHandleA@4  10032000     kernel32:KERNEL32.dll
 0002:00000004       __imp__DecodePointer@4     10032004     kernel32:KERNEL32.dll
 0002:00000008       __imp__CreateFileW@28      10032008     kernel32:KERNEL32.dll
 0002:0000000c       __imp__SetFilePointerEx@20 1003200c     kernel32:KERNEL32.dll
 0002:00000010       __imp__HeapSize@12         10032010     kernel32:KERNEL32.dll
 0002:00000014       __imp__SetStdHandle@8      10032014     kernel32:KERNEL32.dll
 0002:00000018       __imp__GetConsoleMode@8    10032018     kernel32:KERNEL32.dll
 0002:0000001c       __imp__GetConsoleCP@0      1003201c     kernel32:KERNEL32.dll
 0002:00000020       __imp__FlushFileBuffers@4  10032020     kernel32:KERNEL32.dll
 0002:00000024       __imp__GetProcessHeap@0    10032024     kernel32:KERNEL32.dll
 0002:00000028       __imp__SetEnvironmentVariableA@8 10032028     kernel32:KERNEL32.dll
 0002:0000002c       __imp__FreeEnvironmentStringsW@4 1003202c     kernel32:KERNEL32.dll
 0002:00000030       __imp__GetEnvironmentStringsW@0 10032030     kernel32:KERNEL32.dll
 0002:00000034       __imp__GetCommandLineW@0   10032034     kernel32:KERNEL32.dll
 0002:00000038       __imp__GetCommandLineA@0   10032038     kernel32:KERNEL32.dll
 0002:0000003c       __imp__GetCPInfo@8         1003203c     kernel32:KERNEL32.dll
 0002:00000040       __imp__GetOEMCP@0          10032040     kernel32:KERNEL32.dll
 0002:00000044       __imp__IsValidCodePage@4   10032044     kernel32:KERNEL32.dll
 0002:00000048       __imp__FindNextFileA@8     10032048     kernel32:KERNEL32.dll
 0002:0000004c       __imp__FindFirstFileExA@24 1003204c     kernel32:KERNEL32.dll
 0002:00000050       __imp__FindClose@4         10032050     kernel32:KERNEL32.dll
 0002:00000054       __imp__WaitForSingleObjectEx@12 10032054     kernel32:KERNEL32.dll
 0002:00000058       __imp__OutputDebugStringW@4 10032058     kernel32:KERNEL32.dll
 0002:0000005c       __imp__GetStringTypeW@16   1003205c     kernel32:KERNEL32.dll
 0002:00000060       __imp__HeapReAlloc@16      10032060     kernel32:KERNEL32.dll
 0002:00000064       __imp__LCMapStringW@24     10032064     kernel32:KERNEL32.dll
 0002:00000068       __imp__CompareStringW@24   10032068     kernel32:KERNEL32.dll
 0002:0000006c       __imp__GetACP@0            1003206c     kernel32:KERNEL32.dll
 0002:00000070       __imp__HeapAlloc@12        10032070     kernel32:KERNEL32.dll
 0002:00000074       __imp__HeapFree@12         10032074     kernel32:KERNEL32.dll
 0002:00000078       __imp__WideCharToMultiByte@32 10032078     kernel32:KERNEL32.dll
 0002:0000007c       __imp__MultiByteToWideChar@24 1003207c     kernel32:KERNEL32.dll
 0002:00000080       __imp__ExitProcess@4       10032080     kernel32:KERNEL32.dll
 0002:00000084       __imp__FreeLibraryAndExitThread@8 10032084     kernel32:KERNEL32.dll
 0002:00000088       __imp__ExitThread@4        10032088     kernel32:KERNEL32.dll
 0002:0000008c       __imp__CreateThread@24     1003208c     kernel32:KERNEL32.dll
 0002:00000090       __imp__WriteConsoleW@20    10032090     kernel32:KERNEL32.dll
 0002:00000094       __imp__GetModuleHandleExW@12 10032094     kernel32:KERNEL32.dll
 0002:00000098       __imp__GetModuleFileNameW@12 10032098     kernel32:KERNEL32.dll
 0002:0000009c       __imp__GetModuleFileNameA@12 1003209c     kernel32:KERNEL32.dll
 0002:000000a0       __imp__GetFileType@4       100320a0     kernel32:KERNEL32.dll
 0002:000000a4       __imp__GetStdHandle@4      100320a4     kernel32:KERNEL32.dll
 0002:000000a8       __imp__LoadLibraryExW@12   100320a8     kernel32:KERNEL32.dll
 0002:000000ac       __imp__FreeLibrary@4       100320ac     kernel32:KERNEL32.dll
 0002:000000b0       __imp__TlsFree@4           100320b0     kernel32:KERNEL32.dll
 0002:000000b4       __imp__TlsSetValue@8       100320b4     kernel32:KERNEL32.dll
 0002:000000b8       __imp__TlsGetValue@4       100320b8     kernel32:KERNEL32.dll
 0002:000000bc       __imp__TlsAlloc@0          100320bc     kernel32:KERNEL32.dll
 0002:000000c0       __imp__InitializeCriticalSectionAndSpinCount@8 100320c0     kernel32:KERNEL32.dll
 0002:000000c4       __imp__RtlUnwind@16        100320c4     kernel32:KERNEL32.dll
 0002:000000c8       __imp__SetLastError@4      100320c8     kernel32:KERNEL32.dll
 0002:000000cc       __imp__InterlockedFlushSList@4 100320cc     kernel32:KERNEL32.dll
 0002:000000d0       __imp__RaiseException@16   100320d0     kernel32:KERNEL32.dll
 0002:000000d4       __imp__EncodePointer@4     100320d4     kernel32:KERNEL32.dll
 0002:000000d8       __imp__InitializeSListHead@4 100320d8     kernel32:KERNEL32.dll
 0002:000000dc       __imp__GetModuleHandleW@4  100320dc     kernel32:KERNEL32.dll
 0002:000000e0       __imp__GetStartupInfoW@4   100320e0     kernel32:KERNEL32.dll
 0002:000000e4       __imp__IsDebuggerPresent@0 100320e4     kernel32:KERNEL32.dll
 0002:000000e8       __imp__IsProcessorFeaturePresent@4 100320e8     kernel32:KERNEL32.dll
 0002:000000ec       __imp__TerminateProcess@8  100320ec     kernel32:KERNEL32.dll
 0002:000000f0       __imp__SetUnhandledExceptionFilter@4 100320f0     kernel32:KERNEL32.dll
 0002:000000f4       __imp__UnhandledExceptionFilter@4 100320f4     kernel32:KERNEL32.dll
 0002:000000f8       __imp__QueryPerformanceCounter@4 100320f8     kernel32:KERNEL32.dll
 0002:000000fc       __imp__CreateSemaphoreA@16 100320fc     kernel32:KERNEL32.dll
 0002:00000100       __imp__FormatMessageA@28   10032100     kernel32:KERNEL32.dll
 0002:00000104       __imp__GetCurrentProcessId@0 10032104     kernel32:KERNEL32.dll
 0002:00000108       __imp__VerSetConditionMask@16 10032108     kernel32:KERNEL32.dll
 0002:0000010c       __imp__GetOverlappedResult@16 1003210c     kernel32:KERNEL32.dll
 0002:00000110       __imp__QueryPerformanceFrequency@4 10032110     kernel32:KERNEL32.dll
 0002:00000114       __imp__GetVersionExA@4     10032114     kernel32:KERNEL32.dll
 0002:00000118       __imp__LoadLibraryA@4      10032118     kernel32:KERNEL32.dll
 0002:0000011c       __imp__TerminateThread@8   1003211c     kernel32:KERNEL32.dll
 0002:00000120       __imp__CreateFileA@28      10032120     kernel32:KERNEL32.dll
 0002:00000124       __imp__DeviceIoControl@32  10032124     kernel32:KERNEL32.dll
 0002:00000128       __imp__WriteFile@20        10032128     kernel32:KERNEL32.dll
 0002:0000012c       __imp__ReleaseSemaphore@12 1003212c     kernel32:KERNEL32.dll
 0002:00000130       __imp__VerifyVersionInfoA@16 10032130     kernel32:KERNEL32.dll
 0002:00000134       __imp__ReadFile@20         10032134     kernel32:KERNEL32.dll
 0002:00000138       __imp__SetThreadAffinityMask@8 10032138     kernel32:KERNEL32.dll
 0002:0000013c       __imp__GetSystemTimeAsFileTime@4 1003213c     kernel32:KERNEL32.dll
 0002:00000140       __imp__CreateMutexA@12     10032140     kernel32:KERNEL32.dll
 0002:00000144       __imp__WaitForSingleObject@8 10032144     kernel32:KERNEL32.dll
 0002:00000148       __imp__GetCurrentThreadId@0 10032148     kernel32:KERNEL32.dll
 0002:0000014c       __imp__ReleaseMutex@4      1003214c     kernel32:KERNEL32.dll
 0002:00000150       __imp__SetEvent@4          10032150     kernel32:KERNEL32.dll
 0002:00000154       __imp__CloseHandle@4       10032154     kernel32:KERNEL32.dll
 0002:00000158       __imp__SystemTimeToFileTime@8 10032158     kernel32:KERNEL32.dll
 0002:0000015c       __imp__SleepEx@8           1003215c     kernel32:KERNEL32.dll
 0002:00000160       __imp__GetSystemTime@4     10032160     kernel32:KERNEL32.dll
 0002:00000164       __imp__CreateEventA@16     10032164     kernel32:KERNEL32.dll
 0002:00000168       __imp__CancelIo@4          10032168     kernel32:KERNEL32.dll
 0002:0000016c       __imp__EnterCriticalSection@4 1003216c     kernel32:KERNEL32.dll
 0002:00000170       __imp__GetCurrentProcess@0 10032170     kernel32:KERNEL32.dll
 0002:00000174       __imp__WaitForMultipleObjects@16 10032174     kernel32:KERNEL32.dll
 0002:00000178       __imp__LeaveCriticalSection@4 10032178     kernel32:KERNEL32.dll
 0002:0000017c       __imp__InitializeCriticalSection@4 1003217c     kernel32:KERNEL32.dll
 0002:00000180       __imp__DuplicateHandle@28  10032180     kernel32:KERNEL32.dll
 0002:00000184       __imp__GetLastError@0      10032184     kernel32:KERNEL32.dll
 0002:00000188       __imp__ResetEvent@4        10032188     kernel32:KERNEL32.dll
 0002:0000018c       __imp__GetProcAddress@8    1003218c     kernel32:KERNEL32.dll
 0002:00000190       __imp__DeleteCriticalSection@4 10032190     kernel32:KERNEL32.dll
 0002:00000194       \177KERNEL32_NULL_THUNK_DATA 10032194     kernel32:KERNEL32.dll
 0002:00000198       __imp__DispatchMessageA@4  10032198     user32:USER32.dll
 0002:0000019c       __imp__DestroyWindow@4     1003219c     user32:USER32.dll
 0002:000001a0       __imp__PostMessageA@16     100321a0     user32:USER32.dll
 0002:000001a4       __imp__DefWindowProcA@16   100321a4     user32:USER32.dll
 0002:000001a8       __imp__CreateWindowExA@48  100321a8     user32:USER32.dll
 0002:000001ac       __imp__TranslateMessage@4  100321ac     user32:USER32.dll
 0002:000001b0       __imp__GetMessageA@16      100321b0     user32:USER32.dll
 0002:000001b4       \177USER32_NULL_THUNK_DATA 100321b4     user32:USER32.dll
 0002:000001b8       __imp_?ToInt32@Value@v8@@QBE?AV?$Local@VInt32@v8@@@2@XZ 100321b8     iojs:node.dll
 0002:000001bc       __imp_?MakeCallback@node@@YA?AV?$Local@VValue@v8@@@v8@@PAVIsolate@3@V?$Local@VObject@v8@@@3@V?$Local@VFunction@v8@@@3@HPAV23@@Z 100321bc     iojs:node.dll
 0002:000001c0       __imp_?Copy@Buffer@node@@YA?AV?$MaybeLocal@VObject@v8@@@v8@@PAVIsolate@4@PBDI@Z 100321c0     iojs:node.dll
 0002:000001c4       __imp_?FatalException@node@@YAXPAVIsolate@v8@@ABVTryCatch@3@@Z 100321c4     iojs:node.dll
 0002:000001c8       __imp_?NewInstance@Function@v8@@QBE?AV?$Local@VObject@v8@@@2@HQAV?$Local@VValue@v8@@@2@@Z 100321c8     iojs:node.dll
 0002:000001cc       __imp_?ForceSet@Object@v8@@QAE_NV?$Local@VValue@v8@@@2@0W4PropertyAttribute@2@@Z 100321cc     iojs:node.dll
 0002:000001d0       __imp_?SetAlignedPointerInInternalField@Object@v8@@QAEXHPAX@Z 100321d0     iojs:node.dll
 0002:000001d4       __imp_?New@Object@v8@@SA?AV?$Local@VObject@v8@@@2@PAVIsolate@2@@Z 100321d4     iojs:node.dll
 0002:000001d8       __imp_?SlowGetAlignedPointerFromInternalField@Object@v8@@AAEPAXH@Z 100321d8     iojs:node.dll
 0002:000001dc       __imp_?Value@Int32@v8@@QBEHXZ 100321dc     iojs:node.dll
 0002:000001e0       __imp_??0TryCatch@v8@@QAE@PAVIsolate@1@@Z 100321e0     iojs:node.dll
 0002:000001e4       __imp_??1TryCatch@v8@@QAE@XZ 100321e4     iojs:node.dll
 0002:000001e8       __imp_?HasCaught@TryCatch@v8@@QBE_NXZ 100321e8     iojs:node.dll
 0002:000001ec       __imp_?IsFunction@Value@v8@@QBE_NXZ 100321ec     iojs:node.dll
 0002:000001f0       __imp_?IsNumber@Value@v8@@QBE_NXZ 100321f0     iojs:node.dll
 0002:000001f4       __imp_?IsExternal@Value@v8@@QBE_NXZ 100321f4     iojs:node.dll
 0002:000001f8       __imp_?ToUint32@Value@v8@@QBE?AV?$MaybeLocal@VUint32@v8@@@2@V?$Local@VContext@v8@@@2@@Z 100321f8     iojs:node.dll
 0002:000001fc       __imp_?ToInt32@Value@v8@@QBE?AV?$MaybeLocal@VInt32@v8@@@2@V?$Local@VContext@v8@@@2@@Z 100321fc     iojs:node.dll
 0002:00000200       __imp_?MakeWeak@V8@v8@@CAXPAPAVObject@internal@2@PAXP6AXABV?$WeakCallbackInfo@X@2@@ZW4WeakCallbackType@2@@Z 10032200     iojs:node.dll
 0002:00000204       __imp_?ClearWeak@V8@v8@@CAPAXPAPAVObject@internal@2@@Z 10032204     iojs:node.dll
 0002:00000208       __imp_?GetFunction@FunctionTemplate@v8@@QAE?AV?$Local@VFunction@v8@@@2@XZ 10032208     iojs:node.dll
 0002:0000020c       __imp_?InstanceTemplate@FunctionTemplate@v8@@QAE?AV?$Local@VObjectTemplate@v8@@@2@XZ 1003220c     iojs:node.dll
 0002:00000210       __imp_?PrototypeTemplate@FunctionTemplate@v8@@QAE?AV?$Local@VObjectTemplate@v8@@@2@XZ 10032210     iojs:node.dll
 0002:00000214       __imp_?Set@Template@v8@@QAEXV?$Local@VName@v8@@@2@V?$Local@VData@v8@@@2@W4PropertyAttribute@2@@Z 10032214     iojs:node.dll
 0002:00000218       __imp_?New@Signature@v8@@SA?AV?$Local@VSignature@v8@@@2@PAVIsolate@2@V?$Local@VFunctionTemplate@v8@@@2@@Z 10032218     iojs:node.dll
 0002:0000021c       __imp_?NewFromUnsigned@Integer@v8@@SA?AV?$Local@VInteger@v8@@@2@PAVIsolate@2@I@Z 1003221c     iojs:node.dll
 0002:00000220       __imp__uv_queue_work       10032220     iojs:node.dll
 0002:00000224       __imp_??1EscapableHandleScope@v8@@QAE@XZ 10032224     iojs:node.dll
 0002:00000228       __imp_?ToObject@Value@v8@@QBE?AV?$Local@VObject@v8@@@2@XZ 10032228     iojs:node.dll
 0002:0000022c       __imp__uv_default_loop     1003222c     iojs:node.dll
 0002:00000230       __imp__uv_async_init       10032230     iojs:node.dll
 0002:00000234       __imp__uv_async_send       10032234     iojs:node.dll
 0002:00000238       __imp__uv_mutex_init       10032238     iojs:node.dll
 0002:0000023c       __imp__uv_ref              1003223c     iojs:node.dll
 0002:00000240       __imp__uv_mutex_destroy    10032240     iojs:node.dll
 0002:00000244       __imp__uv_thread_create    10032244     iojs:node.dll
 0002:00000248       __imp__node_module_register 10032248     iojs:node.dll
 0002:0000024c       __imp__uv_close            1003224c     iojs:node.dll
 0002:00000250       __imp__uv_mutex_lock       10032250     iojs:node.dll
 0002:00000254       __imp_?New@ObjectTemplate@v8@@SA?AV?$Local@VObjectTemplate@v8@@@2@PAVIsolate@2@V?$Local@VFunctionTemplate@v8@@@2@@Z 10032254     iojs:node.dll
 0002:00000258       __imp_?NewInstance@ObjectTemplate@v8@@QAE?AV?$MaybeLocal@VObject@v8@@@2@V?$Local@VContext@v8@@@2@@Z 10032258     iojs:node.dll
 0002:0000025c       __imp_?SetInternalFieldCount@ObjectTemplate@v8@@QAEXH@Z 1003225c     iojs:node.dll
 0002:00000260       __imp_?Set@Object@v8@@QAE_NIV?$Local@VValue@v8@@@2@@Z 10032260     iojs:node.dll
 0002:00000264       __imp_?Set@Object@v8@@QAE_NV?$Local@VValue@v8@@@2@0@Z 10032264     iojs:node.dll
 0002:00000268       __imp_?DefineOwnProperty@Object@v8@@QAE?AV?$Maybe@_N@2@V?$Local@VContext@v8@@@2@V?$Local@VName@v8@@@2@V?$Local@VValue@v8@@@2@W4PropertyAttribute@2@@Z 10032268     iojs:node.dll
 0002:0000026c       __imp_?SetInternalField@Object@v8@@QAEXHV?$Local@VValue@v8@@@2@@Z 1003226c     iojs:node.dll
 0002:00000270       __imp_?GetIsolate@Object@v8@@QAEPAVIsolate@2@XZ 10032270     iojs:node.dll
 0002:00000274       __imp_?SlowGetInternalField@Object@v8@@AAE?AV?$Local@VValue@v8@@@2@H@Z 10032274     iojs:node.dll
 0002:00000278       __imp_?New@Number@v8@@SA?AV?$Local@VNumber@v8@@@2@PAVIsolate@2@N@Z 10032278     iojs:node.dll
 0002:0000027c       __imp_?NewFromUtf8@String@v8@@SA?AV?$MaybeLocal@VString@v8@@@2@PAVIsolate@2@PBDW4NewStringType@2@H@Z 1003227c     iojs:node.dll
 0002:00000280       __imp_?NewFromUtf8@String@v8@@SA?AV?$Local@VString@v8@@@2@PAVIsolate@2@PBDW4NewStringType@12@H@Z 10032280     iojs:node.dll
 0002:00000284       __imp_??0EscapableHandleScope@v8@@QAE@PAVIsolate@1@@Z 10032284     iojs:node.dll
 0002:00000288       __imp_?Escape@EscapableHandleScope@v8@@AAEPAPAVObject@internal@2@PAPAV342@@Z 10032288     iojs:node.dll
 0002:0000028c       __imp_?IsUint32@Value@v8@@QBE_NXZ 1003228c     iojs:node.dll
 0002:00000290       __imp_?ToInteger@Value@v8@@QBE?AV?$MaybeLocal@VInteger@v8@@@2@V?$Local@VContext@v8@@@2@@Z 10032290     iojs:node.dll
 0002:00000294       __imp_?Uint32Value@Value@v8@@QBEIXZ 10032294     iojs:node.dll
 0002:00000298       __imp_?GlobalizeReference@V8@v8@@CAPAPAVObject@internal@2@PAVIsolate@42@PAPAV342@@Z 10032298     iojs:node.dll
 0002:0000029c       __imp_?DisposeGlobal@V8@v8@@CAXPAPAVObject@internal@2@@Z 1003229c     iojs:node.dll
 0002:000002a0       __imp_?FromJustIsNothing@V8@v8@@CAXXZ 100322a0     iojs:node.dll
 0002:000002a4       __imp_?ToLocalEmpty@V8@v8@@CAXXZ 100322a4     iojs:node.dll
 0002:000002a8       __imp_?New@FunctionTemplate@v8@@SA?AV?$Local@VFunctionTemplate@v8@@@2@PAVIsolate@2@P6AXABV?$FunctionCallbackInfo@VValue@v8@@@2@@ZV?$Local@VValue@v8@@@2@V?$Local@VSignature@v8@@@2@HW4ConstructorBehavior@2@@Z 100322a8     iojs:node.dll
 0002:000002ac       __imp_?GetFunction@FunctionTemplate@v8@@QAE?AV?$MaybeLocal@VFunction@v8@@@2@V?$Local@VContext@v8@@@2@@Z 100322ac     iojs:node.dll
 0002:000002b0       __imp_?SetClassName@FunctionTemplate@v8@@QAEXV?$Local@VString@v8@@@2@@Z 100322b0     iojs:node.dll
 0002:000002b4       __imp_?New@Array@v8@@SA?AV?$Local@VArray@v8@@@2@PAVIsolate@2@H@Z 100322b4     iojs:node.dll
 0002:000002b8       __imp_?TypeError@Exception@v8@@SA?AV?$Local@VValue@v8@@@2@V?$Local@VString@v8@@@2@@Z 100322b8     iojs:node.dll
 0002:000002bc       __imp_?Error@Exception@v8@@SA?AV?$Local@VValue@v8@@@2@V?$Local@VString@v8@@@2@@Z 100322bc     iojs:node.dll
 0002:000002c0       __imp_??0HandleScope@v8@@QAE@PAVIsolate@1@@Z 100322c0     iojs:node.dll
 0002:000002c4       __imp_??1HandleScope@v8@@QAE@XZ 100322c4     iojs:node.dll
 0002:000002c8       __imp_?CreateHandle@HandleScope@v8@@CAPAPAVObject@internal@2@PAVHeapObject@42@PAV342@@Z 100322c8     iojs:node.dll
 0002:000002cc       __imp_?CreateHandle@HandleScope@v8@@KAPAPAVObject@internal@2@PAVIsolate@42@PAV342@@Z 100322cc     iojs:node.dll
 0002:000002d0       __imp_?GetCurrent@Isolate@v8@@SAPAV12@XZ 100322d0     iojs:node.dll
 0002:000002d4       __imp_?GetCurrentContext@Isolate@v8@@QAE?AV?$Local@VContext@v8@@@2@XZ 100322d4     iojs:node.dll
 0002:000002d8       __imp_?ThrowException@Isolate@v8@@QAE?AV?$Local@VValue@v8@@@2@V32@@Z 100322d8     iojs:node.dll
 0002:000002dc       __imp_?New@Integer@v8@@SA?AV?$Local@VInteger@v8@@@2@PAVIsolate@2@H@Z 100322dc     iojs:node.dll
 0002:000002e0       __imp_?New@External@v8@@SA?AV?$Local@VExternal@v8@@@2@PAVIsolate@2@PAX@Z 100322e0     iojs:node.dll
 0002:000002e4       __imp_?Value@External@v8@@QBEPAXXZ 100322e4     iojs:node.dll
 0002:000002e8       __imp__uv_mutex_unlock     100322e8     iojs:node.dll
 0002:000002ec       __imp__uv_unref            100322ec     iojs:node.dll
 0002:000002f0       __imp_?IsObject@Value@v8@@QBE_NXZ 100322f0     iojs:node.dll
 0002:000002f4       __imp_?HasInstance@Buffer@node@@YA_NV?$Local@VValue@v8@@@v8@@@Z 100322f4     iojs:node.dll
 0002:000002f8       __imp_?Data@Buffer@node@@YAPADV?$Local@VObject@v8@@@v8@@@Z 100322f8     iojs:node.dll
 0002:000002fc       __imp_?Length@Buffer@node@@YAIV?$Local@VObject@v8@@@v8@@@Z 100322fc     iojs:node.dll
 0002:00000300       __imp_?MakeCallback@node@@YA?AV?$Local@VValue@v8@@@v8@@PAVIsolate@3@V?$Local@VObject@v8@@@3@PBDHPAV23@@Z 10032300     iojs:node.dll
 0002:00000304       \177node_NULL_THUNK_DATA   10032304     iojs:node.dll
 0002:00000308       ___guard_check_icall_fptr  10032308     LIBCMT:guard_support.obj
 0002:0000030c       ___xc_a                    1003230c     LIBCMT:initializers.obj
 0002:00000324       __register_usb_bindings_   10032324     node_usb.obj
 0002:00000328       ___xc_z                    10032328     LIBCMT:initializers.obj
 0002:0000032c       ___xi_a                    1003232c     LIBCMT:initializers.obj
 0002:00000330       ___acrt_stdio_initializer  10032330     libucrt:stdio_initializer.obj
 0002:00000334       ___acrt_multibyte_initializer 10032334     libucrt:multibyte_initializer.obj
 0002:00000338       ___acrt_tran_sse2_initializer 10032338     libucrt:sse2_initializer.obj
 0002:0000033c       ___xi_z                    1003233c     LIBCMT:initializers.obj
 0002:00000340       ___xp_a                    10032340     LIBCMT:initializers.obj
 0002:00000344       ___acrt_locale_terminator  10032344     libucrt:locale_initializer.obj
 0002:00000348       ___dcrt_console_output_terminator 10032348     libucrt:console_output_initializer.obj
 0002:0000034c       ___acrt_stdio_terminator   1003234c     libucrt:stdio_initializer.obj
 0002:00000350       ___xp_z                    10032350     LIBCMT:initializers.obj
 0002:00000354       ___xt_a                    10032354     LIBCMT:initializers.obj
 0002:00000358       ___xt_z                    10032358     LIBCMT:initializers.obj
 0002:00000364       ??_7exception@std@@6B@     10032364     libcpmt:xthrow.obj
 0002:0000036c       ??_C@_0BC@EOODALEL@Unknown?5exception?$AA@ 1003236c     libcpmt:xthrow.obj
 0002:00000384       ??_7bad_alloc@std@@6B@     10032384     libcpmt:xthrow.obj
 0002:0000038c       ??_C@_0P@GHFPNOJB@bad?5allocation?$AA@ 1003238c     libcpmt:xthrow.obj
 0002:000003a0       ??_7logic_error@std@@6B@   100323a0     libcpmt:xthrow.obj
 0002:000003ac       ??_7length_error@std@@6B@  100323ac     libcpmt:xthrow.obj
 0002:000003b4       __pDefaultRawDllMain       100323b4     LIBCMT:dll_dllmain.obj
 0002:000003b4       __pRawDllMain              100323b4     LIBCMT:dll_dllmain.obj
 0002:000003c4       ??_7type_info@@6B@         100323c4     LIBCMT:std_type_info_static.obj
 0002:000003cc       ??_7bad_array_new_length@std@@6B@ 100323cc     LIBCMT:throw_bad_alloc.obj
 0002:000003d4       ??_C@_0BF@KINCDENJ@bad?5array?5new?5length?$AA@ 100323d4     LIBCMT:throw_bad_alloc.obj
 0002:000003ec       __pDestructExceptionObject 100323ec     libvcruntime:frame.obj
 0002:000003f4       ??_7bad_exception@std@@6B@ 100323f4     libvcruntime:frame.obj
 0002:000003fc       ??_C@_0O@DPKOEFFH@bad?5exception?$AA@ 100323fc     libvcruntime:frame.obj
 0002:0000043c       ??_C@_1BC@DNHGCMLG@?$AAa?$AAd?$AAv?$AAa?$AAp?$AAi?$AA3?$AA2?$AA?$AA@ 1003243c     libvcruntime:winapi_downlevel.obj
 0002:00000450       ??_C@_1DM@KHCHBNEB@?$AAa?$AAp?$AAi?$AA?9?$AAm?$AAs?$AA?9?$AAw?$AAi?$AAn?$AA?9?$AAc?$AAo?$AAr?$AAe?$AA?9?$AAf?$AAi?$AAb?$AAe?$AAr?$AAs?$AA?9?$AAl?$AA1?$AA?9?$AA1?$AA?9?$AA1?$AA?$AA@ 10032450     libvcruntime:winapi_downlevel.obj
 0002:0000048c       ??_C@_1DK@LPPGFMPP@?$AAa?$AAp?$AAi?$AA?9?$AAm?$AAs?$AA?9?$AAw?$AAi?$AAn?$AA?9?$AAc?$AAo?$AAr?$AAe?$AA?9?$AAs?$AAy?$AAn?$AAc?$AAh?$AA?9?$AAl?$AA1?$AA?9?$AA2?$AA?9?$AA0?$AA?$AA@ 1003248c     libvcruntime:winapi_downlevel.obj
 0002:000004c8       ??_C@_1BC@GDMECMAK@?$AAk?$AAe?$AAr?$AAn?$AAe?$AAl?$AA3?$AA2?$AA?$AA@ 100324c8     libvcruntime:winapi_downlevel.obj
 0002:000004e4       ??_C@_08KNHFBNJ@FlsAlloc?$AA@ 100324e4     libvcruntime:winapi_downlevel.obj
 0002:000004f8       ??_C@_07PEJMOBNF@FlsFree?$AA@ 100324f8     libvcruntime:winapi_downlevel.obj
 0002:00000508       ??_C@_0M@GDNOONDI@FlsGetValue?$AA@ 10032508     libvcruntime:winapi_downlevel.obj
 0002:0000051c       ??_C@_0M@JCPCPOEF@FlsSetValue?$AA@ 1003251c     libvcruntime:winapi_downlevel.obj
 0002:00000530       ??_C@_0BM@HCFOFFN@InitializeCriticalSectionEx?$AA@ 10032530     libvcruntime:winapi_downlevel.obj
 0002:000006e0       ??_C@_08EHJDFFNH@__based?$CI?$AA@ 100326e0     libvcruntime:undname.obj
 0002:000006ec       ??_C@_07KOLFKCDI@__cdecl?$AA@ 100326ec     libvcruntime:undname.obj
 0002:000006f4       ??_C@_08GHMPAG@__pascal?$AA@ 100326f4     libvcruntime:undname.obj
 0002:00000700       ??_C@_09IFJBGAPI@__stdcall?$AA@ 10032700     libvcruntime:undname.obj
 0002:0000070c       ??_C@_0L@NPHFGOKO@__thiscall?$AA@ 1003270c     libvcruntime:undname.obj
 0002:00000718       ??_C@_0L@JMKHOMEK@__fastcall?$AA@ 10032718     libvcruntime:undname.obj
 0002:00000724       ??_C@_0N@BCKKPABJ@__vectorcall?$AA@ 10032724     libvcruntime:undname.obj
 0002:00000734       ??_C@_09HIJEGCPM@__clrcall?$AA@ 10032734     libvcruntime:undname.obj
 0002:00000740       ??_C@_06GHPCKEAG@__eabi?$AA@ 10032740     libvcruntime:undname.obj
 0002:00000748       ??_C@_07JOMMBBKO@__ptr64?$AA@ 10032748     libvcruntime:undname.obj
 0002:00000750       ??_C@_0L@PILCLIHE@__restrict?$AA@ 10032750     libvcruntime:undname.obj
 0002:0000075c       ??_C@_0M@GFIIJFMG@__unaligned?$AA@ 1003275c     libvcruntime:undname.obj
 0002:00000768       ??_C@_09DHDLOLLB@restrict?$CI?$AA@ 10032768     libvcruntime:undname.obj
 0002:00000774       ??_C@_04NIHEBCM@?5new?$AA@ 10032774     libvcruntime:undname.obj
 0002:0000077c       ??_C@_07FPCDHGMM@?5delete?$AA@ 1003277c     libvcruntime:undname.obj
 0002:00000784       ??_C@_01NEMOKFLO@?$DN?$AA@ 10032784     libvcruntime:undname.obj
 0002:00000788       ??_C@_02GPIOPFAK@?$DO?$DO?$AA@ 10032788     libvcruntime:undname.obj
 0002:0000078c       ??_C@_02FODMEDOG@?$DM?$DM?$AA@ 1003278c     libvcruntime:undname.obj
 0002:00000790       ??_C@_01DCLJPIOD@?$CB?$AA@ 10032790     libvcruntime:undname.obj
 0002:00000794       ??_C@_02EGOFBIJA@?$DN?$DN?$AA@ 10032794     libvcruntime:undname.obj
 0002:00000798       ??_C@_02FDNJECIE@?$CB?$DN?$AA@ 10032798     libvcruntime:undname.obj
 0002:0000079c       ??_C@_02GPECMEKF@?$FL?$FN?$AA@ 1003279c     libvcruntime:undname.obj
 0002:000007a0       ??_C@_08LHJFAFGD@operator?$AA@ 100327a0     libvcruntime:undname.obj
 0002:000007ac       ??_C@_02HBOOOICD@?9?$DO?$AA@ 100327ac     libvcruntime:undname.obj
 0002:000007b0       ??_C@_01NBENCBCI@?$CK?$AA@ 100327b0     libvcruntime:undname.obj
 0002:000007b4       ??_C@_02ECNGHCIF@?$CL?$CL?$AA@ 100327b4     libvcruntime:undname.obj
 0002:000007b8       ??_C@_02BAABKJLB@?9?9?$AA@ 100327b8     libvcruntime:undname.obj
 0002:000007bc       ??_C@_01JOAMLHOP@?9?$AA@   100327bc     libvcruntime:undname.obj
 0002:000007c0       ??_C@_01MIFGBAGJ@?$CL?$AA@ 100327c0     libvcruntime:undname.obj
 0002:000007c4       ??_C@_01HNPIGOCE@?$CG?$AA@ 100327c4     libvcruntime:undname.obj
 0002:000007c8       ??_C@_03MNHNFDLC@?9?$DO?$CK?$AA@ 100327c8     libvcruntime:undname.obj
 0002:000007cc       ??_C@_01KMDKNFGN@?1?$AA@   100327cc     libvcruntime:undname.obj
 0002:000007d0       ??_C@_01FGNFDNOH@?$CF?$AA@ 100327d0     libvcruntime:undname.obj
 0002:000007d4       ??_C@_01MNNFJEPP@?$DM?$AA@ 100327d4     libvcruntime:undname.obj
 0002:000007d8       ??_C@_02EHCHHCKH@?$DM?$DN?$AA@ 100327d8     libvcruntime:undname.obj
 0002:000007dc       ??_C@_01PPODPGHN@?$DO?$AA@ 100327dc     libvcruntime:undname.obj
 0002:000007e0       ??_C@_02EEKDKGMJ@?$DO?$DN?$AA@ 100327e0     libvcruntime:undname.obj
 0002:000007e4       ??_C@_01IHBHIGKO@?0?$AA@   100327e4     libvcruntime:undname.obj
 0002:000007e8       ??_C@_02HCKGKOFO@?$CI?$CJ?$AA@ 100327e8     libvcruntime:undname.obj
 0002:000007ec       ??_C@_01PJKLJHI@?$HO?$AA@  100327ec     libvcruntime:undname.obj
 0002:000007f0       ??_C@_01JKBOJNNK@?$FO?$AA@ 100327f0     libvcruntime:undname.obj
 0002:000007f4       ??_C@_01DNKMNLPK@?$HM?$AA@ 100327f4     libvcruntime:undname.obj
 0002:000007f8       ??_C@_02PPKAJPJL@?$CG?$CG?$AA@ 100327f8     libvcruntime:undname.obj
 0002:000007fc       ??_C@_02NONPIBCD@?$HM?$HM?$AA@ 100327fc     libvcruntime:undname.obj
 0002:00000800       ??_C@_02FPIMKNGF@?$CK?$DN?$AA@ 10032800     libvcruntime:undname.obj
 0002:00000804       ??_C@_02FOEOMHFC@?$CL?$DN?$AA@ 10032804     libvcruntime:undname.obj
 0002:00000808       ??_C@_02FKMDLLOA@?9?$DN?$AA@ 10032808     libvcruntime:undname.obj
 0002:0000080c       ??_C@_02FJEHGPIO@?1?$DN?$AA@ 1003280c     libvcruntime:undname.obj
 0002:00000810       ??_C@_02FENAOKFI@?$CF?$DN?$AA@ 10032810     libvcruntime:undname.obj
 0002:00000814       ??_C@_03IKFCCPFF@?$DO?$DO?$DN?$AA@ 10032814     libvcruntime:undname.obj
 0002:00000818       ??_C@_03CDNPDDLA@?$DM?$DM?$DN?$AA@ 10032818     libvcruntime:undname.obj
 0002:0000081c       ??_C@_02FGJGFEAB@?$CG?$DN?$AA@ 1003281c     libvcruntime:undname.obj
 0002:00000820       ??_C@_02DHLNPPGH@?$HM?$DN?$AA@ 10032820     libvcruntime:undname.obj
 0002:00000824       ??_C@_02MHEGNOJ@?$FO?$DN?$AA@ 10032824     libvcruntime:undname.obj
 0002:00000828       ??_C@_09IFPLHPGF@?$GAvftable?8?$AA@ 10032828     libvcruntime:undname.obj
 0002:00000834       ??_C@_09BLBHBJP@?$GAvbtable?8?$AA@ 10032834     libvcruntime:undname.obj
 0002:00000840       ??_C@_07FEEIOKP@?$GAvcall?8?$AA@ 10032840     libvcruntime:undname.obj
 0002:00000848       ??_C@_08LLFFHHDJ@?$GAtypeof?8?$AA@ 10032848     libvcruntime:undname.obj
 0002:00000854       ??_C@_0BF@KDPPACIK@?$GAlocal?5static?5guard?8?$AA@ 10032854     libvcruntime:undname.obj
 0002:0000086c       ??_C@_08OBABFOLI@?$GAstring?8?$AA@ 1003286c     libvcruntime:undname.obj
 0002:00000878       ??_C@_0BD@JDLKDPAB@?$GAvbase?5destructor?8?$AA@ 10032878     libvcruntime:undname.obj
 0002:0000088c       ??_C@_0BN@DEGPLNFK@?$GAvector?5deleting?5destructor?8?$AA@ 1003288c     libvcruntime:undname.obj
 0002:000008ac       ??_C@_0BO@OBMKPJIG@?$GAdefault?5constructor?5closure?8?$AA@ 100328ac     libvcruntime:undname.obj
 0002:000008cc       ??_C@_0BN@IMDCHIKM@?$GAscalar?5deleting?5destructor?8?$AA@ 100328cc     libvcruntime:undname.obj
 0002:000008ec       ??_C@_0BO@PFGOCPJJ@?$GAvector?5constructor?5iterator?8?$AA@ 100328ec     libvcruntime:undname.obj
 0002:0000090c       ??_C@_0BN@LFPFMEDL@?$GAvector?5destructor?5iterator?8?$AA@ 1003290c     libvcruntime:undname.obj
 0002:0000092c       ??_C@_0CE@IKBNEHA@?$GAvector?5vbase?5constructor?5iterat@ 1003292c     libvcruntime:undname.obj
 0002:00000950       ??_C@_0BL@NILFHHPC@?$GAvirtual?5displacement?5map?8?$AA@ 10032950     libvcruntime:undname.obj
 0002:0000096c       ??_C@_0CB@JONCMFFK@?$GAeh?5vector?5constructor?5iterator?8@ 1003296c     libvcruntime:undname.obj
 0002:00000990       ??_C@_0CA@GCEOPDGL@?$GAeh?5vector?5destructor?5iterator?8?$AA@ 10032990     libvcruntime:undname.obj
 0002:000009b0       ??_C@_0CH@OOJPLCPH@?$GAeh?5vector?5vbase?5constructor?5ite@ 100329b0     libvcruntime:undname.obj
 0002:000009d8       ??_C@_0BL@LLKPOHJI@?$GAcopy?5constructor?5closure?8?$AA@ 100329d8     libvcruntime:undname.obj
 0002:000009f4       ??_C@_0BA@KBCDOMBN@?$GAudt?5returning?8?$AA@ 100329f4     libvcruntime:undname.obj
 0002:00000a04       ??_C@_03KLGMFNMG@?$GAEH?$AA@ 10032a04     libvcruntime:undname.obj
 0002:00000a08       ??_C@_05KHLCHHI@?$GARTTI?$AA@ 10032a08     libvcruntime:undname.obj
 0002:00000a10       ??_C@_0BA@KKLDJDLB@?$GAlocal?5vftable?8?$AA@ 10032a10     libvcruntime:undname.obj
 0002:00000a20       ??_C@_0CE@IIHCMGGL@?$GAlocal?5vftable?5constructor?5closu@ 10032a20     libvcruntime:undname.obj
 0002:00000a44       ??_C@_06FHBGPFGH@?5new?$FL?$FN?$AA@ 10032a44     libvcruntime:undname.obj
 0002:00000a4c       ??_C@_09LBNFPBCA@?5delete?$FL?$FN?$AA@ 10032a4c     libvcruntime:undname.obj
 0002:00000a58       ??_C@_0P@HJKNJFNN@?$GAomni?5callsig?8?$AA@ 10032a58     libvcruntime:undname.obj
 0002:00000a68       ??_C@_0BL@CNOONJFP@?$GAplacement?5delete?5closure?8?$AA@ 10032a68     libvcruntime:undname.obj
 0002:00000a84       ??_C@_0BN@CKNJLHMB@?$GAplacement?5delete?$FL?$FN?5closure?8?$AA@ 10032a84     libvcruntime:undname.obj
 0002:00000aa4       ??_C@_0CG@CFDHKGGD@?$GAmanaged?5vector?5constructor?5iter@ 10032aa4     libvcruntime:undname.obj
 0002:00000acc       ??_C@_0CF@IMGKMJNO@?$GAmanaged?5vector?5destructor?5itera@ 10032acc     libvcruntime:undname.obj
 0002:00000af4       ??_C@_0CG@HLDDJMAG@?$GAeh?5vector?5copy?5constructor?5iter@ 10032af4     libvcruntime:undname.obj
 0002:00000b1c       ??_C@_0CM@FCBBDIGB@?$GAeh?5vector?5vbase?5copy?5constructo@ 10032b1c     libvcruntime:undname.obj
 0002:00000b48       ??_C@_0BL@CLIPGLGB@?$GAdynamic?5initializer?5for?5?8?$AA@ 10032b48     libvcruntime:undname.obj
 0002:00000b64       ??_C@_0CB@PDBIFEP@?$GAdynamic?5atexit?5destructor?5for?5?8@ 10032b64     libvcruntime:undname.obj
 0002:00000b88       ??_C@_0CD@CGAJBKEJ@?$GAvector?5copy?5constructor?5iterato@ 10032b88     libvcruntime:undname.obj
 0002:00000bac       ??_C@_0CJ@GJELGAMM@?$GAvector?5vbase?5copy?5constructor?5i@ 10032bac     libvcruntime:undname.obj
 0002:00000bd8       ??_C@_0CL@FGIJHLCE@?$GAmanaged?5vector?5copy?5constructor@ 10032bd8     libvcruntime:undname.obj
 0002:00000c04       ??_C@_0BM@PMGGMLDN@?$GAlocal?5static?5thread?5guard?8?$AA@ 10032c04     libvcruntime:undname.obj
 0002:00000c20       ??_C@_0N@BDNMDMOL@operator?5?$CC?$CC?5?$AA@ 10032c20     libvcruntime:undname.obj
 0002:00000c30       ??_C@_0BC@DAFEJGAK@?5Type?5Descriptor?8?$AA@ 10032c30     libvcruntime:undname.obj
 0002:00000c44       ??_C@_0BM@LDKODKLH@?5Base?5Class?5Descriptor?5at?5?$CI?$AA@ 10032c44     libvcruntime:undname.obj
 0002:00000c60       ??_C@_0BD@LGICGFMM@?5Base?5Class?5Array?8?$AA@ 10032c60     libvcruntime:undname.obj
 0002:00000c74       ??_C@_0BN@MECKDCOJ@?5Class?5Hierarchy?5Descriptor?8?$AA@ 10032c74     libvcruntime:undname.obj
 0002:00000c94       ??_C@_0BK@CFCOFLF@?5Complete?5Object?5Locator?8?$AA@ 10032c94     libvcruntime:undname.obj
 0002:00000cb0       _standard_lookup_table     10032cb0     libucrt:output.obj
 0002:00000d0c       ??_C@_06OJHGLDPL@?$CInull?$CJ?$AA@ 10032d0c     libucrt:output.obj
 0002:00000d14       ??_C@_1O@CEDCILHN@?$AA?$CI?$AAn?$AAu?$AAl?$AAl?$AA?$CJ?$AA?$AA@ 10032d14     libucrt:output.obj
 0002:00000e90       ??_C@_1EK@MBDPDCGA@?$AAM?$AAi?$AAc?$AAr?$AAo?$AAs?$AAo?$AAf?$AAt?$AA?5?$AAV?$AAi?$AAs?$AAu?$AAa?$AAl?$AA?5?$AAC?$AA?$CL?$AA?$CL?$AA?5?$AAR?$AAu?$AAn?$AAt?$AAi?$AAm?$AAe?$AA?5?$AAL?$AAi?$AAb@ 10032e90     libucrt:assert.obj
 0002:00000ee0       ??_C@_1FE@LHBLIKM@?$AAA?$AAs?$AAs?$AAe?$AAr?$AAt?$AAi?$AAo?$AAn?$AA?5?$AAf?$AAa?$AAi?$AAl?$AAe?$AAd?$AA?3?$AA?5?$AA?$CF?$AAT?$AAs?$AA?0?$AA?5?$AAf?$AAi?$AAl?$AAe?$AA?5?$AA?$CF?$AAT?$AAs?$AA?0@ 10032ee0     libucrt:assert.obj
 0002:00000f34       ??_C@_1CE@OJBNHDMO@?$AAA?$AAs?$AAs?$AAe?$AAr?$AAt?$AAi?$AAo?$AAn?$AA?5?$AAf?$AAa?$AAi?$AAl?$AAe?$AAd?$AA?$CB?$AA?$AA@ 10032f34     libucrt:assert.obj
 0002:00000f58       ??_C@_1BE@PHKBBGE@?$AAP?$AAr?$AAo?$AAg?$AAr?$AAa?$AAm?$AA?3?$AA?5?$AA?$AA@ 10032f58     libucrt:assert.obj
 0002:00000f6c       ??_C@_1O@HEMHKNDC@?$AAF?$AAi?$AAl?$AAe?$AA?3?$AA?5?$AA?$AA@ 10032f6c     libucrt:assert.obj
 0002:00000f7c       ??_C@_1O@KCAFKHJE@?$AAL?$AAi?$AAn?$AAe?$AA?3?$AA?5?$AA?$AA@ 10032f7c     libucrt:assert.obj
 0002:00000f8c       ??_C@_1BK@PEDCIPMA@?$AAE?$AAx?$AAp?$AAr?$AAe?$AAs?$AAs?$AAi?$AAo?$AAn?$AA?3?$AA?5?$AA?$AA@ 10032f8c     libucrt:assert.obj
 0002:00000fa8       ??_C@_1OA@EGMLFBHJ@?$AAF?$AAo?$AAr?$AA?5?$AAi?$AAn?$AAf?$AAo?$AAr?$AAm?$AAa?$AAt?$AAi?$AAo?$AAn?$AA?5?$AAo?$AAn?$AA?5?$AAh?$AAo?$AAw?$AA?5?$AAy?$AAo?$AAu?$AAr?$AA?5?$AAp?$AAr?$AAo?$AAg@ 10032fa8     libucrt:assert.obj
 0002:00001088       ??_C@_1HK@POCJMFGK@?$AA?$CI?$AAP?$AAr?$AAe?$AAs?$AAs?$AA?5?$AAR?$AAe?$AAt?$AAr?$AAy?$AA?5?$AAt?$AAo?$AA?5?$AAd?$AAe?$AAb?$AAu?$AAg?$AA?5?$AAt?$AAh?$AAe?$AA?5?$AAa?$AAp?$AAp?$AAl?$AAi?$AAc@ 10033088     libucrt:assert.obj
 0002:00001104       ??_C@_17LGKOMLJ@?$AA?4?$AA?4?$AA?4?$AA?$AA@ 10033104     libucrt:assert.obj
 0002:0000110c       ??_C@_13LBAGMAIH@?$AA?6?$AA?$AA@ 1003310c     libucrt:assert.obj
 0002:00001110       ??_C@_15IABLJNFO@?$AA?6?$AA?6?$AA?$AA@ 10033110     libucrt:assert.obj
 0002:00001118       ??_C@_1CO@EAEJAADC@?$AA?$DM?$AAp?$AAr?$AAo?$AAg?$AAr?$AAa?$AAm?$AA?5?$AAn?$AAa?$AAm?$AAe?$AA?5?$AAu?$AAn?$AAk?$AAn?$AAo?$AAw?$AAn?$AA?$DO?$AA?$AA@ 10033118     libucrt:assert.obj
 0002:00001148       ?large_power_data@?1??multiply_by_power_of_ten@__crt_strtox@@YA_NAAUbig_integer@2@I@Z@4QBIB 10033148     libucrt:input.obj
 0002:00001a50       ?large_power_indices@?1??multiply_by_power_of_ten@__crt_strtox@@YA_NAAUbig_integer@2@I@Z@4QBUunpack_index@?1??12@YA_N0I@Z@B 10033a50     libucrt:input.obj
 0002:00001ae8       ?small_powers_of_ten@?6??multiply_by_power_of_ten@__crt_strtox@@YA_NAAUbig_integer@2@I@Z@4QBIB 10033ae8     libucrt:input.obj
 0002:00001b10       ??_C@_1GE@DPGDJKLM@?$AAm?$AAi?$AAn?$AAk?$AAe?$AAr?$AAn?$AAe?$AAl?$AA?2?$AAc?$AAr?$AAt?$AAs?$AA?2?$AAu?$AAc?$AAr?$AAt?$AA?2?$AAi?$AAn?$AAc?$AA?2?$AAc?$AAo?$AAr?$AAe?$AAc?$AAr?$AAt?$AA_@ 10033b10     libucrt:input.obj
 0002:00001b78       ??_C@_1FM@FELNCOBF@?$AA_?$AA_?$AAc?$AAr?$AAt?$AA_?$AAs?$AAt?$AAr?$AAt?$AAo?$AAx?$AA?3?$AA?3?$AAf?$AAl?$AAo?$AAa?$AAt?$AAi?$AAn?$AAg?$AA_?$AAp?$AAo?$AAi?$AAn?$AAt?$AA_?$AAv?$AAa?$AAl@ 10033b78     libucrt:input.obj
 0002:00001bd4       ??_C@_1BG@GEMHBGAF@?$AA_?$AAi?$AAs?$AA_?$AAd?$AAo?$AAu?$AAb?$AAl?$AAe?$AA?$AA@ 10033bd4     libucrt:input.obj
 0002:00001bf0       ??_C@_1FK@JOJELFFO@?$AA_?$AA_?$AAc?$AAr?$AAt?$AA_?$AAs?$AAt?$AAr?$AAt?$AAo?$AAx?$AA?3?$AA?3?$AAf?$AAl?$AAo?$AAa?$AAt?$AAi?$AAn?$AAg?$AA_?$AAp?$AAo?$AAi?$AAn?$AAt?$AA_?$AAv?$AAa?$AAl@ 10033bf0     libucrt:input.obj
 0002:00001c4c       ??_C@_1BI@BANMPGJI@?$AA?$CB?$AA_?$AAi?$AAs?$AA_?$AAd?$AAo?$AAu?$AAb?$AAl?$AAe?$AA?$AA@ 10033c4c     libucrt:input.obj
 0002:00001c68       ?constraints@?1??is_length_valid@__crt_stdio_input@@YA_NW4conversion_mode@2@W4length_modifier@2@@Z@4QAY0M@$$CBEA 10033c68     libucrt:input.obj
 0002:00001ce0       ?inf_uppercase@?2???$parse_floating_point_possible_infinity@DV?$input_adapter_character_source@V?$string_input_adapter@D@__crt_stdio_input@@@__crt_strtox@@_K@__crt_strtox@@YA?AW4floating_point_parse_result@1@AADAAV?$input_adapter_character_source@V?$string_input_adapter@D@__crt_stdio_input@@@1@_K@Z@4QBDB 10033ce0     libucrt:input.obj
 0002:00001ce4       ?inf_lowercase@?2???$parse_floating_point_possible_infinity@DV?$input_adapter_character_source@V?$string_input_adapter@D@__crt_stdio_input@@@__crt_strtox@@_K@__crt_strtox@@YA?AW4floating_point_parse_result@1@AADAAV?$input_adapter_character_source@V?$string_input_adapter@D@__crt_stdio_input@@@1@_K@Z@4QBDB 10033ce4     libucrt:input.obj
 0002:00001ce8       ?inity_uppercase@?5???$parse_floating_point_possible_infinity@DV?$input_adapter_character_source@V?$string_input_adapter@D@__crt_stdio_input@@@__crt_strtox@@_K@__crt_strtox@@YA?AW4floating_point_parse_result@1@AADAAV?$input_adapter_character_source@V?$string_input_adapter@D@__crt_stdio_input@@@1@_K@Z@4QBDB 10033ce8     libucrt:input.obj
 0002:00001cf0       ?inity_lowercase@?5???$parse_floating_point_possible_infinity@DV?$input_adapter_character_source@V?$string_input_adapter@D@__crt_stdio_input@@@__crt_strtox@@_K@__crt_strtox@@YA?AW4floating_point_parse_result@1@AADAAV?$input_adapter_character_source@V?$string_input_adapter@D@__crt_stdio_input@@@1@_K@Z@4QBDB 10033cf0     libucrt:input.obj
 0002:00001cf8       ?uppercase@?2???$parse_floating_point_possible_nan@DV?$input_adapter_character_source@V?$string_input_adapter@D@__crt_stdio_input@@@__crt_strtox@@_K@__crt_strtox@@YA?AW4floating_point_parse_result@1@AADAAV?$input_adapter_character_source@V?$string_input_adapter@D@__crt_stdio_input@@@1@_K@Z@4QBDB 10033cf8     libucrt:input.obj
 0002:00001cfc       ?lowercase@?2???$parse_floating_point_possible_nan@DV?$input_adapter_character_source@V?$string_input_adapter@D@__crt_stdio_input@@@__crt_strtox@@_K@__crt_strtox@@YA?AW4floating_point_parse_result@1@AADAAV?$input_adapter_character_source@V?$string_input_adapter@D@__crt_stdio_input@@@1@_K@Z@4QBDB 10033cfc     libucrt:input.obj
 0002:00001d00       ?uppercase@?1???$parse_floating_point_possible_nan_is_snan@DV?$input_adapter_character_source@V?$string_input_adapter@D@__crt_stdio_input@@@__crt_strtox@@@__crt_strtox@@YA_NAADAAV?$input_adapter_character_source@V?$string_input_adapter@D@__crt_stdio_input@@@1@@Z@4QBDB 10033d00     libucrt:input.obj
 0002:00001d08       ?lowercase@?1???$parse_floating_point_possible_nan_is_snan@DV?$input_adapter_character_source@V?$string_input_adapter@D@__crt_stdio_input@@@__crt_strtox@@@__crt_strtox@@YA_NAADAAV?$input_adapter_character_source@V?$string_input_adapter@D@__crt_stdio_input@@@1@@Z@4QBDB 10033d08     libucrt:input.obj
 0002:00001d10       ?uppercase@?1???$parse_floating_point_possible_nan_is_ind@DV?$input_adapter_character_source@V?$string_input_adapter@D@__crt_stdio_input@@@__crt_strtox@@@__crt_strtox@@YA_NAADAAV?$input_adapter_character_source@V?$string_input_adapter@D@__crt_stdio_input@@@1@@Z@4QBDB 10033d10     libucrt:input.obj
 0002:00001d14       ?lowercase@?1???$parse_floating_point_possible_nan_is_ind@DV?$input_adapter_character_source@V?$string_input_adapter@D@__crt_stdio_input@@@__crt_strtox@@@__crt_strtox@@YA_NAADAAV?$input_adapter_character_source@V?$string_input_adapter@D@__crt_stdio_input@@@1@@Z@4QBDB 10033d14     libucrt:input.obj
 0002:00001d18       ___acrt_exception_action_table 10033d18     libucrt:exception_filter.obj
 0002:00001da8       ___acrt_signal_action_table_count 10033da8     libucrt:exception_filter.obj
 0002:00001dac       ___acrt_signal_action_first_fpe_index 10033dac     libucrt:exception_filter.obj
 0002:00001db0       ___acrt_signal_action_fpe_count 10033db0     libucrt:exception_filter.obj
 0002:00001db4       ??_C@_1BI@BGOHAHKC@?$AAm?$AAs?$AAc?$AAo?$AAr?$AAe?$AAe?$AA?4?$AAd?$AAl?$AAl?$AA?$AA@ 10033db4     libucrt:exit.obj
 0002:00001dcc       ??_C@_0P@MIGLKIOC@CorExitProcess?$AA@ 10033dcc     libucrt:exit.obj
 0002:00001e58       ??_C@_03KOEHGMDN@Sun?$AA@  10033e58     libucrt:nlsdata.obj
 0002:00001e5c       ??_C@_03PDAGKDH@Mon?$AA@   10033e5c     libucrt:nlsdata.obj
 0002:00001e60       ??_C@_03NAGEINEP@Tue?$AA@  10033e60     libucrt:nlsdata.obj
 0002:00001e64       ??_C@_03MHOMLAJA@Wed?$AA@  10033e64     libucrt:nlsdata.obj
 0002:00001e68       ??_C@_03IOFIKPDN@Thu?$AA@  10033e68     libucrt:nlsdata.obj
 0002:00001e6c       ??_C@_03IDIOELNC@Fri?$AA@  10033e6c     libucrt:nlsdata.obj
 0002:00001e70       ??_C@_03FEFJNEK@Sat?$AA@   10033e70     libucrt:nlsdata.obj
 0002:00001e74       ??_C@_06OOPIFAJ@Sunday?$AA@ 10033e74     libucrt:nlsdata.obj
 0002:00001e7c       ??_C@_06JLEDEDGH@Monday?$AA@ 10033e7c     libucrt:nlsdata.obj
 0002:00001e84       ??_C@_07BAAGCFCM@Tuesday?$AA@ 10033e84     libucrt:nlsdata.obj
 0002:00001e8c       ??_C@_09DLIGFAKA@Wednesday?$AA@ 10033e8c     libucrt:nlsdata.obj
 0002:00001e98       ??_C@_08HACCIKIA@Thursday?$AA@ 10033e98     libucrt:nlsdata.obj
 0002:00001ea4       ??_C@_06JECMNKMI@Friday?$AA@ 10033ea4     libucrt:nlsdata.obj
 0002:00001eac       ??_C@_08INBOOONO@Saturday?$AA@ 10033eac     libucrt:nlsdata.obj
 0002:00001eb8       ??_C@_03JIHJHPIE@Jan?$AA@  10033eb8     libucrt:nlsdata.obj
 0002:00001ebc       ??_C@_03HJBDCHOM@Feb?$AA@  10033ebc     libucrt:nlsdata.obj
 0002:00001ec0       ??_C@_03ODNJBKGA@Mar?$AA@  10033ec0     libucrt:nlsdata.obj
 0002:00001ec4       ??_C@_03LEOLGMJP@Apr?$AA@  10033ec4     libucrt:nlsdata.obj
 0002:00001ec8       ??_C@_03CNMDKL@May?$AA@    10033ec8     libucrt:nlsdata.obj
 0002:00001ecc       ??_C@_03IDFGHECI@Jun?$AA@  10033ecc     libucrt:nlsdata.obj
 0002:00001ed0       ??_C@_03LBGABGKK@Jul?$AA@  10033ed0     libucrt:nlsdata.obj
 0002:00001ed4       ??_C@_03IFJFEIGA@Aug?$AA@  10033ed4     libucrt:nlsdata.obj
 0002:00001ed8       ??_C@_03GGCAPAJC@Sep?$AA@  10033ed8     libucrt:nlsdata.obj
 0002:00001edc       ??_C@_03BMAOKBAD@Oct?$AA@  10033edc     libucrt:nlsdata.obj
 0002:00001ee0       ??_C@_03JPJOFNIA@Nov?$AA@  10033ee0     libucrt:nlsdata.obj
 0002:00001ee4       ??_C@_03MKABNOCG@Dec?$AA@  10033ee4     libucrt:nlsdata.obj
 0002:00001ee8       ??_C@_07CGJPFGJA@January?$AA@ 10033ee8     libucrt:nlsdata.obj
 0002:00001ef0       ??_C@_08GNJGEPFN@February?$AA@ 10033ef0     libucrt:nlsdata.obj
 0002:00001efc       ??_C@_05HPCKOFNC@March?$AA@ 10033efc     libucrt:nlsdata.obj
 0002:00001f04       ??_C@_05DMJDNLEJ@April?$AA@ 10033f04     libucrt:nlsdata.obj
 0002:00001f0c       ??_C@_04CNLMGBGM@June?$AA@ 10033f0c     libucrt:nlsdata.obj
 0002:00001f14       ??_C@_04MIEPOIFP@July?$AA@ 10033f14     libucrt:nlsdata.obj
 0002:00001f1c       ??_C@_06LBBHFDDG@August?$AA@ 10033f1c     libucrt:nlsdata.obj
 0002:00001f24       ??_C@_09BHHEALKD@September?$AA@ 10033f24     libucrt:nlsdata.obj
 0002:00001f30       ??_C@_07JJNFCEND@October?$AA@ 10033f30     libucrt:nlsdata.obj
 0002:00001f38       ??_C@_08HCHEGEOA@November?$AA@ 10033f38     libucrt:nlsdata.obj
 0002:00001f44       ??_C@_08EDHMEBNP@December?$AA@ 10033f44     libucrt:nlsdata.obj
 0002:00001f50       ??_C@_02DEDBPAFC@AM?$AA@   10033f50     libucrt:nlsdata.obj
 0002:00001f54       ??_C@_02CJNFDJBF@PM?$AA@   10033f54     libucrt:nlsdata.obj
 0002:00001f58       ??_C@_08BPBNCDIB@MM?1dd?1yy?$AA@ 10033f58     libucrt:nlsdata.obj
 0002:00001f64       ??_C@_0BE@CKGJFCPC@dddd?0?5MMMM?5dd?0?5yyyy?$AA@ 10033f64     libucrt:nlsdata.obj
 0002:00001f78       ??_C@_08JCCMCCIL@HH?3mm?3ss?$AA@ 10033f78     libucrt:nlsdata.obj
 0002:00001f84       ??_C@_17MBGCMIPB@?$AAS?$AAu?$AAn?$AA?$AA@ 10033f84     libucrt:nlsdata.obj
 0002:00001f8c       ??_C@_17KBOMKBF@?$AAM?$AAo?$AAn?$AA?$AA@ 10033f8c     libucrt:nlsdata.obj
 0002:00001f94       ??_C@_17BMKGEGOJ@?$AAT?$AAu?$AAe?$AA?$AA@ 10033f94     libucrt:nlsdata.obj
 0002:00001f9c       ??_C@_17CJEDCEPE@?$AAW?$AAe?$AAd?$AA?$AA@ 10033f9c     libucrt:nlsdata.obj
 0002:00001fa4       ??_C@_17PDPHAADD@?$AAT?$AAh?$AAu?$AA?$AA@ 10033fa4     libucrt:nlsdata.obj
 0002:00001fac       ??_C@_17HFOLPPLP@?$AAF?$AAr?$AAi?$AA?$AA@ 10033fac     libucrt:nlsdata.obj
 0002:00001fb4       ??_C@_17GGIBDPIH@?$AAS?$AAa?$AAt?$AA?$AA@ 10033fb4     libucrt:nlsdata.obj
 0002:00001fbc       ??_C@_1O@IHNHDHPB@?$AAS?$AAu?$AAn?$AAd?$AAa?$AAy?$AA?$AA@ 10033fbc     libucrt:nlsdata.obj
 0002:00001fcc       ??_C@_1O@MMNBFLIA@?$AAM?$AAo?$AAn?$AAd?$AAa?$AAy?$AA?$AA@ 10033fcc     libucrt:nlsdata.obj
 0002:00001fdc       ??_C@_1BA@ENFBFFEK@?$AAT?$AAu?$AAe?$AAs?$AAd?$AAa?$AAy?$AA?$AA@ 10033fdc     libucrt:nlsdata.obj
 0002:00001fec       ??_C@_1BE@EBOGMDOH@?$AAW?$AAe?$AAd?$AAn?$AAe?$AAs?$AAd?$AAa?$AAy?$AA?$AA@ 10033fec     libucrt:nlsdata.obj
 0002:00002000       ??_C@_1BC@HHMNLIHE@?$AAT?$AAh?$AAu?$AAr?$AAs?$AAd?$AAa?$AAy?$AA?$AA@ 10034000     libucrt:nlsdata.obj
 0002:00002014       ??_C@_1O@PDICJHAG@?$AAF?$AAr?$AAi?$AAd?$AAa?$AAy?$AA?$AA@ 10034014     libucrt:nlsdata.obj
 0002:00002024       ??_C@_1BC@ENMNNPAJ@?$AAS?$AAa?$AAt?$AAu?$AAr?$AAd?$AAa?$AAy?$AA?$AA@ 10034024     libucrt:nlsdata.obj
 0002:00002038       ??_C@_17DKNBKCHM@?$AAJ?$AAa?$AAn?$AA?$AA@ 10034038     libucrt:nlsdata.obj
 0002:00002040       ??_C@_17LMDJEKJN@?$AAF?$AAe?$AAb?$AA?$AA@ 10034040     libucrt:nlsdata.obj
 0002:00002048       ??_C@_17CKNLEDEC@?$AAM?$AAa?$AAr?$AA?$AA@ 10034048     libucrt:nlsdata.obj
 0002:00002050       ??_C@_17LFPOIHDD@?$AAA?$AAp?$AAr?$AA?$AA@ 10034050     libucrt:nlsdata.obj
 0002:00002058       ??_C@_17PNNKMEED@?$AAM?$AAa?$AAy?$AA?$AA@ 10034058     libucrt:nlsdata.obj
 0002:00002060       ??_C@_17KCJGOCPB@?$AAJ?$AAu?$AAn?$AA?$AA@ 10034060     libucrt:nlsdata.obj
 0002:00002068       ??_C@_17IJPCKHK@?$AAJ?$AAu?$AAl?$AA?$AA@ 10034068     libucrt:nlsdata.obj
 0002:00002070       ??_C@_17ICPELBCN@?$AAA?$AAu?$AAg?$AA?$AA@ 10034070     libucrt:nlsdata.obj
 0002:00002078       ??_C@_17HCHCOKMG@?$AAS?$AAe?$AAp?$AA?$AA@ 10034078     libucrt:nlsdata.obj
 0002:00002080       ??_C@_17FNLKOI@?$AAO?$AAc?$AAt?$AA?$AA@ 10034080     libucrt:nlsdata.obj
 0002:00002088       ??_C@_17BBDMLCIG@?$AAN?$AAo?$AAv?$AA?$AA@ 10034088     libucrt:nlsdata.obj
 0002:00002090       ??_C@_17EGKACKIF@?$AAD?$AAe?$AAc?$AA?$AA@ 10034090     libucrt:nlsdata.obj
 0002:00002098       ??_C@_1BA@EFMEIEBA@?$AAJ?$AAa?$AAn?$AAu?$AAa?$AAr?$AAy?$AA?$AA@ 10034098     libucrt:nlsdata.obj
 0002:000020a8       ??_C@_1BC@JGDDFFAM@?$AAF?$AAe?$AAb?$AAr?$AAu?$AAa?$AAr?$AAy?$AA?$AA@ 100340a8     libucrt:nlsdata.obj
 0002:000020bc       ??_C@_1M@IKEENEDF@?$AAM?$AAa?$AAr?$AAc?$AAh?$AA?$AA@ 100340bc     libucrt:nlsdata.obj
 0002:000020c8       ??_C@_1M@GJNLMHFD@?$AAA?$AAp?$AAr?$AAi?$AAl?$AA?$AA@ 100340c8     libucrt:nlsdata.obj
 0002:000020d4       ??_C@_19EPFLPGAP@?$AAJ?$AAu?$AAn?$AAe?$AA?$AA@ 100340d4     libucrt:nlsdata.obj
 0002:000020e0       ??_C@_19BIFMLPCD@?$AAJ?$AAu?$AAl?$AAy?$AA?$AA@ 100340e0     libucrt:nlsdata.obj
 0002:000020ec       ??_C@_1O@PAHLKOAC@?$AAA?$AAu?$AAg?$AAu?$AAs?$AAt?$AA?$AA@ 100340ec     libucrt:nlsdata.obj
 0002:000020fc       ??_C@_1BE@DKAAMBJL@?$AAS?$AAe?$AAp?$AAt?$AAe?$AAm?$AAb?$AAe?$AAr?$AA?$AA@ 100340fc     libucrt:nlsdata.obj
 0002:00002110       ??_C@_1BA@EPANDLNG@?$AAO?$AAc?$AAt?$AAo?$AAb?$AAe?$AAr?$AA?$AA@ 10034110     libucrt:nlsdata.obj
 0002:00002120       ??_C@_1BC@BGLIFPF@?$AAN?$AAo?$AAv?$AAe?$AAm?$AAb?$AAe?$AAr?$AA?$AA@ 10034120     libucrt:nlsdata.obj
 0002:00002134       ??_C@_1BC@FEMKIFH@?$AAD?$AAe?$AAc?$AAe?$AAm?$AAb?$AAe?$AAr?$AA?$AA@ 10034134     libucrt:nlsdata.obj
 0002:00002148       ??_C@_15ODEHAHHF@?$AAA?$AAM?$AA?$AA@ 10034148     libucrt:nlsdata.obj
 0002:00002150       ??_C@_15CLMNNGEL@?$AAP?$AAM?$AA?$AA@ 10034150     libucrt:nlsdata.obj
 0002:00002158       ??_C@_1BC@IEBCMHCM@?$AAM?$AAM?$AA?1?$AAd?$AAd?$AA?1?$AAy?$AAy?$AA?$AA@ 10034158     libucrt:nlsdata.obj
 0002:0000216c       ??_C@_1CI@KNAKOEBC@?$AAd?$AAd?$AAd?$AAd?$AA?0?$AA?5?$AAM?$AAM?$AAM?$AAM?$AA?5?$AAd?$AAd?$AA?0?$AA?5?$AAy?$AAy?$AAy?$AAy?$AA?$AA@ 1003416c     libucrt:nlsdata.obj
 0002:00002194       ??_C@_1BC@GDGBMEMK@?$AAH?$AAH?$AA?3?$AAm?$AAm?$AA?3?$AAs?$AAs?$AA?$AA@ 10034194     libucrt:nlsdata.obj
 0002:000021a8       ??_C@_1M@BMHNFIME@?$AAe?$AAn?$AA?9?$AAU?$AAS?$AA?$AA@ 100341a8     libucrt:nlsdata.obj
 0002:000021b8       ___lc_time_c               100341b8     libucrt:nlsdata.obj
 0002:00002370       ??_C@_1EG@CNNIPFIM@?$AAa?$AAp?$AAi?$AA?9?$AAm?$AAs?$AA?9?$AAw?$AAi?$AAn?$AA?9?$AAa?$AAp?$AAp?$AAm?$AAo?$AAd?$AAe?$AAl?$AA?9?$AAr?$AAu?$AAn?$AAt?$AAi?$AAm?$AAe?$AA?9?$AAl?$AA1?$AA?9?$AA1@ 10034370     libucrt:winapi_thunks.obj
 0002:000023b8       ??_C@_1EA@JGEFHKEI@?$AAa?$AAp?$AAi?$AA?9?$AAm?$AAs?$AA?9?$AAw?$AAi?$AAn?$AA?9?$AAc?$AAo?$AAr?$AAe?$AA?9?$AAd?$AAa?$AAt?$AAe?$AAt?$AAi?$AAm?$AAe?$AA?9?$AAl?$AA1?$AA?9?$AA1?$AA?9?$AA1?$AA?$AA@ 100343b8     libucrt:winapi_thunks.obj
 0002:000023f8       ??_C@_1DI@GCIAAENM@?$AAa?$AAp?$AAi?$AA?9?$AAm?$AAs?$AA?9?$AAw?$AAi?$AAn?$AA?9?$AAc?$AAo?$AAr?$AAe?$AA?9?$AAf?$AAi?$AAl?$AAe?$AA?9?$AAl?$AA2?$AA?9?$AA1?$AA?9?$AA1?$AA?$AA@ 100343f8     libucrt:winapi_thunks.obj
 0002:00002430       ??_C@_1EI@MPIAOHOC@?$AAa?$AAp?$AAi?$AA?9?$AAm?$AAs?$AA?9?$AAw?$AAi?$AAn?$AA?9?$AAc?$AAo?$AAr?$AAe?$AA?9?$AAl?$AAo?$AAc?$AAa?$AAl?$AAi?$AAz?$AAa?$AAt?$AAi?$AAo?$AAn?$AA?9?$AAl?$AA1?$AA?9@ 10034430     libucrt:winapi_thunks.obj
 0002:00002478       ??_C@_1FK@FPHCKFIE@?$AAa?$AAp?$AAi?$AA?9?$AAm?$AAs?$AA?9?$AAw?$AAi?$AAn?$AA?9?$AAc?$AAo?$AAr?$AAe?$AA?9?$AAl?$AAo?$AAc?$AAa?$AAl?$AAi?$AAz?$AAa?$AAt?$AAi?$AAo?$AAn?$AA?9?$AAo?$AAb?$AAs@ 10034478     libucrt:winapi_thunks.obj
 0002:000024d8       ??_C@_1EM@DILCGIIO@?$AAa?$AAp?$AAi?$AA?9?$AAm?$AAs?$AA?9?$AAw?$AAi?$AAn?$AA?9?$AAc?$AAo?$AAr?$AAe?$AA?9?$AAp?$AAr?$AAo?$AAc?$AAe?$AAs?$AAs?$AAt?$AAh?$AAr?$AAe?$AAa?$AAd?$AAs?$AA?9?$AAl@ 100344d8     libucrt:winapi_thunks.obj
 0002:00002524       ??_C@_1DM@LNCGDDPN@?$AAa?$AAp?$AAi?$AA?9?$AAm?$AAs?$AA?9?$AAw?$AAi?$AAn?$AA?9?$AAc?$AAo?$AAr?$AAe?$AA?9?$AAs?$AAt?$AAr?$AAi?$AAn?$AAg?$AA?9?$AAl?$AA1?$AA?9?$AA1?$AA?9?$AA0?$AA?$AA@ 10034524     libucrt:winapi_thunks.obj
 0002:00002560       ??_C@_1DO@FPAPJEMD@?$AAa?$AAp?$AAi?$AA?9?$AAm?$AAs?$AA?9?$AAw?$AAi?$AAn?$AA?9?$AAc?$AAo?$AAr?$AAe?$AA?9?$AAs?$AAy?$AAs?$AAi?$AAn?$AAf?$AAo?$AA?9?$AAl?$AA1?$AA?9?$AA2?$AA?9?$AA1?$AA?$AA@ 10034560     libucrt:winapi_thunks.obj
 0002:000025a0       ??_C@_1DK@NDHNAHIO@?$AAa?$AAp?$AAi?$AA?9?$AAm?$AAs?$AA?9?$AAw?$AAi?$AAn?$AA?9?$AAc?$AAo?$AAr?$AAe?$AA?9?$AAw?$AAi?$AAn?$AAr?$AAt?$AA?9?$AAl?$AA1?$AA?9?$AA1?$AA?9?$AA0?$AA?$AA@ 100345a0     libucrt:winapi_thunks.obj
 0002:000025dc       ??_C@_1DM@KGHDGBCM@?$AAa?$AAp?$AAi?$AA?9?$AAm?$AAs?$AA?9?$AAw?$AAi?$AAn?$AA?9?$AAc?$AAo?$AAr?$AAe?$AA?9?$AAx?$AAs?$AAt?$AAa?$AAt?$AAe?$AA?9?$AAl?$AA2?$AA?9?$AA1?$AA?9?$AA0?$AA?$AA@ 100345dc     libucrt:winapi_thunks.obj
 0002:00002618       ??_C@_1EO@IJIOEFOH@?$AAa?$AAp?$AAi?$AA?9?$AAm?$AAs?$AA?9?$AAw?$AAi?$AAn?$AA?9?$AAr?$AAt?$AAc?$AAo?$AAr?$AAe?$AA?9?$AAn?$AAt?$AAu?$AAs?$AAe?$AAr?$AA?9?$AAw?$AAi?$AAn?$AAd?$AAo?$AAw?$AA?9@ 10034618     libucrt:winapi_thunks.obj
 0002:00002668       ??_C@_1FG@HHGEKANL@?$AAa?$AAp?$AAi?$AA?9?$AAm?$AAs?$AA?9?$AAw?$AAi?$AAn?$AA?9?$AAs?$AAe?$AAc?$AAu?$AAr?$AAi?$AAt?$AAy?$AA?9?$AAs?$AAy?$AAs?$AAt?$AAe?$AAm?$AAf?$AAu?$AAn?$AAc?$AAt?$AAi@ 10034668     libucrt:winapi_thunks.obj
 0002:000026c0       ??_C@_1FG@NCKKOLKO@?$AAe?$AAx?$AAt?$AA?9?$AAm?$AAs?$AA?9?$AAw?$AAi?$AAn?$AA?9?$AAk?$AAe?$AAr?$AAn?$AAe?$AAl?$AA3?$AA2?$AA?9?$AAp?$AAa?$AAc?$AAk?$AAa?$AAg?$AAe?$AA?9?$AAc?$AAu?$AAr?$AAr@ 100346c0     libucrt:winapi_thunks.obj
 0002:00002718       ??_C@_1EG@DBIOJECG@?$AAe?$AAx?$AAt?$AA?9?$AAm?$AAs?$AA?9?$AAw?$AAi?$AAn?$AA?9?$AAn?$AAt?$AAu?$AAs?$AAe?$AAr?$AA?9?$AAd?$AAi?$AAa?$AAl?$AAo?$AAg?$AAb?$AAo?$AAx?$AA?9?$AAl?$AA1?$AA?9?$AA1@ 10034718     libucrt:winapi_thunks.obj
 0002:00002760       ??_C@_1EO@FIHMJCLF@?$AAe?$AAx?$AAt?$AA?9?$AAm?$AAs?$AA?9?$AAw?$AAi?$AAn?$AA?9?$AAn?$AAt?$AAu?$AAs?$AAe?$AAr?$AA?9?$AAw?$AAi?$AAn?$AAd?$AAo?$AAw?$AAs?$AAt?$AAa?$AAt?$AAi?$AAo?$AAn?$AA?9@ 10034760     libucrt:winapi_thunks.obj
 0002:000027b0       ??_C@_1O@BCCLBEOE@?$AAu?$AAs?$AAe?$AAr?$AA3?$AA2?$AA?$AA@ 100347b0     libucrt:winapi_thunks.obj
 0002:000027c8       ??_C@_0BA@IHGNDAEB@CompareStringEx?$AA@ 100347c8     libucrt:winapi_thunks.obj
 0002:00002800       ??_C@_0BA@HNOPNCHB@GetActiveWindow?$AA@ 10034800     libucrt:winapi_thunks.obj
 0002:00002818       ??_C@_0BE@JOGNEJCI@GetCurrentPackageId?$AA@ 10034818     libucrt:winapi_thunks.obj
 0002:00002834       ??_C@_0BD@HHGDFDBJ@GetLastActivePopup?$AA@ 10034834     libucrt:winapi_thunks.obj
 0002:00002850       ??_C@_0BI@DFKBFLJE@GetProcessWindowStation?$AA@ 10034850     libucrt:winapi_thunks.obj
 0002:00002870       ??_C@_0BK@DEKFELLI@GetUserObjectInformationW?$AA@ 10034870     libucrt:winapi_thunks.obj
 0002:0000289c       ??_C@_0O@KKBNKAPF@LCMapStringEx?$AA@ 1003489c     libucrt:winapi_thunks.obj
 0002:000028b4       ??_C@_0BB@HBDEELFH@LocaleNameToLCID?$AA@ 100348b4     libucrt:winapi_thunks.obj
 0002:000028d0       ??_C@_0M@CHKKJDAI@MessageBoxA?$AA@ 100348d0     libucrt:winapi_thunks.obj
 0002:000028e4       ??_C@_0M@DLDCCGNP@MessageBoxW?$AA@ 100348e4     libucrt:winapi_thunks.obj
 0002:000028f4       ??_C@_0N@PPOMPGGK@RoInitialize?$AA@ 100348f4     libucrt:winapi_thunks.obj
 0002:00002908       ??_C@_0P@LLFHBIJD@RoUninitialize?$AA@ 10034908     libucrt:winapi_thunks.obj
 0002:00002918       ??_C@_03OEIAHPBN@INF?$AA@  10034918     libucrt:cvt.obj
 0002:0000291c       ??_C@_03OJHLLCGB@inf?$AA@  1003491c     libucrt:cvt.obj
 0002:00002920       ??_C@_03LKNCIKJB@NAN?$AA@  10034920     libucrt:cvt.obj
 0002:00002924       ??_C@_03LHCJEHON@nan?$AA@  10034924     libucrt:cvt.obj
 0002:00002928       ??_C@_09OFJJIMPC@NAN?$CISNAN?$CJ?$AA@ 10034928     libucrt:cvt.obj
 0002:00002934       ??_C@_09IPFBKMDL@nan?$CIsnan?$CJ?$AA@ 10034934     libucrt:cvt.obj
 0002:00002940       ??_C@_08IKHNHAJ@NAN?$CIIND?$CJ?$AA@ 10034940     libucrt:cvt.obj
 0002:0000294c       ??_C@_08OFCDMILK@nan?$CIind?$CJ?$AA@ 1003494c     libucrt:cvt.obj
 0002:00002958       ??_C@_05KLBDPFGC@e?$CL000?$AA@ 10034958     libucrt:cvt.obj
 0002:00002960       __wctype                   10034960     libucrt:ctype.obj
 0002:00002b68       ___newctype                10034b68     libucrt:ctype.obj
 0002:00002e68       ___newclmap                10034e68     libucrt:ctype.obj
 0002:00002fe8       ___newcumap                10034fe8     libucrt:ctype.obj
 0002:00003178       ??_C@_1M@HPNHIDJI@?$AAj?$AAa?$AA?9?$AAJ?$AAP?$AA?$AA@ 10035178     libucrt:mbctype.obj
 0002:00003184       ??_C@_1M@BIBDDEMK@?$AAz?$AAh?$AA?9?$AAC?$AAN?$AA?$AA@ 10035184     libucrt:mbctype.obj
 0002:00003190       ??_C@_1M@JLOOOEGK@?$AAk?$AAo?$AA?9?$AAK?$AAR?$AA?$AA@ 10035190     libucrt:mbctype.obj
 0002:0000319c       ??_C@_1M@CLNBBOPM@?$AAz?$AAh?$AA?9?$AAT?$AAW?$AA?$AA@ 1003519c     libucrt:mbctype.obj
 0002:000031a8       ??_C@_15PJPFLCCM@?$AAu?$AAk?$AA?$AA@ 100351a8     libucrt:get_qualified_locale.obj
 0002:000038d0       ??_C@_15EMKDOKLE@?$AAa?$AAr?$AA?$AA@ 100358d0     libucrt:lcidtoname_downlevel.obj
 0002:000038d8       ??_C@_15KNPADPLH@?$AAb?$AAg?$AA?$AA@ 100358d8     libucrt:lcidtoname_downlevel.obj
 0002:000038e0       ??_C@_15EDMHLDMO@?$AAc?$AAa?$AA?$AA@ 100358e0     libucrt:lcidtoname_downlevel.obj
 0002:000038e8       ??_C@_1O@BPEAJADD@?$AAz?$AAh?$AA?9?$AAC?$AAH?$AAS?$AA?$AA@ 100358e8     libucrt:lcidtoname_downlevel.obj
 0002:000038f8       ??_C@_15LJNHCMNK@?$AAc?$AAs?$AA?$AA@ 100358f8     libucrt:lcidtoname_downlevel.obj
 0002:00003900       ??_C@_15FOMCIDHG@?$AAd?$AAa?$AA?$AA@ 10035900     libucrt:lcidtoname_downlevel.obj
 0002:00003908       ??_C@_15NBKABECB@?$AAd?$AAe?$AA?$AA@ 10035908     libucrt:lcidtoname_downlevel.obj
 0002:00003910       ??_C@_15GHPEIIAO@?$AAe?$AAl?$AA?$AA@ 10035910     libucrt:lcidtoname_downlevel.obj
 0002:00003918       ??_C@_15MNPNEAIF@?$AAe?$AAn?$AA?$AA@ 10035918     libucrt:lcidtoname_downlevel.obj
 0002:00003920       ??_C@_15GPIOMPMH@?$AAe?$AAs?$AA?$AA@ 10035920     libucrt:lcidtoname_downlevel.obj
 0002:00003928       ??_C@_15NGLOAKJC@?$AAf?$AAi?$AA?$AA@ 10035928     libucrt:lcidtoname_downlevel.obj
 0002:00003930       ??_C@_15FBKGNKAM@?$AAf?$AAr?$AA?$AA@ 10035930     libucrt:lcidtoname_downlevel.obj
 0002:00003938       ??_C@_15KGGCNEFK@?$AAh?$AAe?$AA?$AA@ 10035938     libucrt:lcidtoname_downlevel.obj
 0002:00003940       ??_C@_15PGHLIDMF@?$AAh?$AAu?$AA?$AA@ 10035940     libucrt:lcidtoname_downlevel.obj
 0002:00003948       ??_C@_15BIEMAPLM@?$AAi?$AAs?$AA?$AA@ 10035948     libucrt:lcidtoname_downlevel.obj
 0002:00003950       ??_C@_15IFJLDHAF@?$AAi?$AAt?$AA?$AA@ 10035950     libucrt:lcidtoname_downlevel.obj
 0002:00003958       ??_C@_15GEMIOCAG@?$AAj?$AAa?$AA?$AA@ 10035958     libucrt:lcidtoname_downlevel.obj
 0002:00003960       ??_C@_15EPELEGJA@?$AAk?$AAo?$AA?$AA@ 10035960     libucrt:lcidtoname_downlevel.obj
 0002:00003968       ??_C@_15NDDHIMN@?$AAn?$AAl?$AA?$AA@ 10035968     libucrt:lcidtoname_downlevel.obj
 0002:00003970       ??_C@_15BPIGNHCD@?$AAn?$AAo?$AA?$AA@ 10035970     libucrt:lcidtoname_downlevel.obj
 0002:00003978       ??_C@_15DEOPBLCG@?$AAp?$AAl?$AA?$AA@ 10035978     libucrt:lcidtoname_downlevel.obj
 0002:00003980       ??_C@_15KBECGEFG@?$AAp?$AAt?$AA?$AA@ 10035980     libucrt:lcidtoname_downlevel.obj
 0002:00003988       ??_C@_15GLJCBFMD@?$AAr?$AAo?$AA?$AA@ 10035988     libucrt:lcidtoname_downlevel.obj
 0002:00003990       ??_C@_15FEDGKCDI@?$AAr?$AAu?$AA?$AA@ 10035990     libucrt:lcidtoname_downlevel.obj
 0002:00003998       ??_C@_15GLKMLLHM@?$AAh?$AAr?$AA?$AA@ 10035998     libucrt:lcidtoname_downlevel.obj
 0002:000039a0       ??_C@_15CPKMFBDB@?$AAs?$AAk?$AA?$AA@ 100359a0     libucrt:lcidtoname_downlevel.obj
 0002:000039a8       ??_C@_15BAAIOGMK@?$AAs?$AAq?$AA?$AA@ 100359a8     libucrt:lcidtoname_downlevel.obj
 0002:000039b0       ??_C@_15INNPNOHD@?$AAs?$AAv?$AA?$AA@ 100359b0     libucrt:lcidtoname_downlevel.obj
 0002:000039b8       ??_C@_15CABMMOGH@?$AAt?$AAh?$AA?$AA@ 100359b8     libucrt:lcidtoname_downlevel.obj
 0002:000039c0       ??_C@_15BPLIHJJM@?$AAt?$AAr?$AA?$AA@ 100359c0     libucrt:lcidtoname_downlevel.obj
 0002:000039c8       ??_C@_15NEOEKKDJ@?$AAu?$AAr?$AA?$AA@ 100359c8     libucrt:lcidtoname_downlevel.obj
 0002:000039d0       ??_C@_15NFICGAJK@?$AAi?$AAd?$AA?$AA@ 100359d0     libucrt:lcidtoname_downlevel.obj
 0002:000039d8       ??_C@_15HPJPHDM@?$AAb?$AAe?$AA?$AA@ 100359d8     libucrt:lcidtoname_downlevel.obj
 0002:000039e0       ??_C@_15LCHLGJII@?$AAs?$AAl?$AA?$AA@ 100359e0     libucrt:lcidtoname_downlevel.obj
 0002:000039e8       ??_C@_15PCFJPHHO@?$AAe?$AAt?$AA?$AA@ 100359e8     libucrt:lcidtoname_downlevel.obj
 0002:000039f0       ??_C@_15HPFPGODN@?$AAl?$AAv?$AA?$AA@ 100359f0     libucrt:lcidtoname_downlevel.obj
 0002:000039f8       ??_C@_15NFFGKGLG@?$AAl?$AAt?$AA?$AA@ 100359f8     libucrt:lcidtoname_downlevel.obj
 0002:00003a00       ??_C@_15BDAKCCHN@?$AAf?$AAa?$AA?$AA@ 10035a00     libucrt:lcidtoname_downlevel.obj
 0002:00003a08       ??_C@_15NFGIAIAJ@?$AAv?$AAi?$AA?$AA@ 10035a08     libucrt:lcidtoname_downlevel.obj
 0002:00003a10       ??_C@_15LMKNDMHN@?$AAh?$AAy?$AA?$AA@ 10035a10     libucrt:lcidtoname_downlevel.obj
 0002:00003a18       ??_C@_15IJBHMCFL@?$AAa?$AAz?$AA?$AA@ 10035a18     libucrt:lcidtoname_downlevel.obj
 0002:00003a20       ??_C@_15EKOFJABL@?$AAe?$AAu?$AA?$AA@ 10035a20     libucrt:lcidtoname_downlevel.obj
 0002:00003a28       ??_C@_15BGHADCNK@?$AAm?$AAk?$AA?$AA@ 10035a28     libucrt:lcidtoname_downlevel.obj
 0002:00003a30       ??_C@_15JDNICKHM@?$AAa?$AAf?$AA?$AA@ 10035a30     libucrt:lcidtoname_downlevel.obj
 0002:00003a38       ??_C@_15KPJEDBKD@?$AAk?$AAa?$AA?$AA@ 10035a38     libucrt:lcidtoname_downlevel.obj
 0002:00003a40       ??_C@_15PDNFFFEO@?$AAf?$AAo?$AA?$AA@ 10035a40     libucrt:lcidtoname_downlevel.obj
 0002:00003a48       ??_C@_15OMLEGLOC@?$AAh?$AAi?$AA?$AA@ 10035a48     libucrt:lcidtoname_downlevel.obj
 0002:00003a50       ??_C@_15IDNNENKK@?$AAm?$AAs?$AA?$AA@ 10035a50     libucrt:lcidtoname_downlevel.obj
 0002:00003a58       ??_C@_15MACJNBMH@?$AAk?$AAk?$AA?$AA@ 10035a58     libucrt:lcidtoname_downlevel.obj
 0002:00003a60       ??_C@_15DKDJEOND@?$AAk?$AAy?$AA?$AA@ 10035a60     libucrt:lcidtoname_downlevel.obj
 0002:00003a68       ??_C@_15DFGDLJBG@?$AAs?$AAw?$AA?$AA@ 10035a68     libucrt:lcidtoname_downlevel.obj
 0002:00003a70       ??_C@_15BBFAICNG@?$AAu?$AAz?$AA?$AA@ 10035a70     libucrt:lcidtoname_downlevel.obj
 0002:00003a78       ??_C@_15DKNDCGEA@?$AAt?$AAt?$AA?$AA@ 10035a78     libucrt:lcidtoname_downlevel.obj
 0002:00003a80       ??_C@_15MGIFMDPL@?$AAp?$AAa?$AA?$AA@ 10035a80     libucrt:lcidtoname_downlevel.obj
 0002:00003a88       ??_C@_15HCNDBBA@?$AAg?$AAu?$AA?$AA@ 10035a88     libucrt:lcidtoname_downlevel.obj
 0002:00003a90       ??_C@_15FNBEIBON@?$AAt?$AAa?$AA?$AA@ 10035a90     libucrt:lcidtoname_downlevel.obj
 0002:00003a98       ??_C@_15NCHGBGLK@?$AAt?$AAe?$AA?$AA@ 10035a98     libucrt:lcidtoname_downlevel.obj
 0002:00003aa0       ??_C@_15PHPHCBPF@?$AAk?$AAn?$AA?$AA@ 10035aa0     libucrt:lcidtoname_downlevel.obj
 0002:00003aa8       ??_C@_15DLGBCKMP@?$AAm?$AAr?$AA?$AA@ 10035aa8     libucrt:lcidtoname_downlevel.obj
 0002:00003ab0       ??_C@_15EABBLBFF@?$AAs?$AAa?$AA?$AA@ 10035ab0     libucrt:lcidtoname_downlevel.obj
 0002:00003ab8       ??_C@_15CBKOMCOI@?$AAm?$AAn?$AA?$AA@ 10035ab8     libucrt:lcidtoname_downlevel.obj
 0002:00003ac0       ??_C@_15CKDMCJAF@?$AAg?$AAl?$AA?$AA@ 10035ac0     libucrt:lcidtoname_downlevel.obj
 0002:00003ac8       ??_C@_17CNJFBPG@?$AAk?$AAo?$AAk?$AA?$AA@ 10035ac8     libucrt:lcidtoname_downlevel.obj
 0002:00003ad0       ??_C@_17FFBJICPL@?$AAs?$AAy?$AAr?$AA?$AA@ 10035ad0     libucrt:lcidtoname_downlevel.obj
 0002:00003ad8       ??_C@_17KPNDCPAF@?$AAd?$AAi?$AAv?$AA?$AA@ 10035ad8     libucrt:lcidtoname_downlevel.obj
 0002:00003ae0       ??_C@_11LOCGONAA@?$AA?$AA@ 10035ae0     libucrt:lcidtoname_downlevel.obj
 0002:00003ae4       ??_C@_1M@OKAHONE@?$AAa?$AAr?$AA?9?$AAS?$AAA?$AA?$AA@ 10035ae4     libucrt:lcidtoname_downlevel.obj
 0002:00003af0       ??_C@_1M@FFFIGIGK@?$AAb?$AAg?$AA?9?$AAB?$AAG?$AA?$AA@ 10035af0     libucrt:lcidtoname_downlevel.obj
 0002:00003afc       ??_C@_1M@BJNKEDC@?$AAc?$AAa?$AA?9?$AAE?$AAS?$AA?$AA@ 10035afc     libucrt:lcidtoname_downlevel.obj
 0002:00003b08       ??_C@_1M@IJJHFJHA@?$AAc?$AAs?$AA?9?$AAC?$AAZ?$AA?$AA@ 10035b08     libucrt:lcidtoname_downlevel.obj
 0002:00003b14       ??_C@_1M@CLPEOBGI@?$AAd?$AAa?$AA?9?$AAD?$AAK?$AA?$AA@ 10035b14     libucrt:lcidtoname_downlevel.obj
 0002:00003b20       ??_C@_1M@MCMADGCB@?$AAd?$AAe?$AA?9?$AAD?$AAE?$AA?$AA@ 10035b20     libucrt:lcidtoname_downlevel.obj
 0002:00003b2c       ??_C@_1M@OOCKEMAM@?$AAe?$AAl?$AA?9?$AAG?$AAR?$AA?$AA@ 10035b2c     libucrt:lcidtoname_downlevel.obj
 0002:00003b38       ??_C@_1M@DDNJFGID@?$AAf?$AAi?$AA?9?$AAF?$AAI?$AA?$AA@ 10035b38     libucrt:lcidtoname_downlevel.obj
 0002:00003b44       ??_C@_1M@GLIPPMAC@?$AAf?$AAr?$AA?9?$AAF?$AAR?$AA?$AA@ 10035b44     libucrt:lcidtoname_downlevel.obj
 0002:00003b50       ??_C@_1M@GFMCHPE@?$AAh?$AAe?$AA?9?$AAI?$AAL?$AA?$AA@ 10035b50     libucrt:lcidtoname_downlevel.obj
 0002:00003b5c       ??_C@_1M@MHLPGNKM@?$AAh?$AAu?$AA?9?$AAH?$AAU?$AA?$AA@ 10035b5c     libucrt:lcidtoname_downlevel.obj
 0002:00003b68       ??_C@_1M@LPDDNNPN@?$AAi?$AAs?$AA?9?$AAI?$AAS?$AA?$AA@ 10035b68     libucrt:lcidtoname_downlevel.obj
 0002:00003b74       ??_C@_1M@MADIPODN@?$AAi?$AAt?$AA?9?$AAI?$AAT?$AA?$AA@ 10035b74     libucrt:lcidtoname_downlevel.obj
 0002:00003b80       ??_C@_1M@IHBJJGG@?$AAn?$AAl?$AA?9?$AAN?$AAL?$AA?$AA@ 10035b80     libucrt:lcidtoname_downlevel.obj
 0002:00003b8c       ??_C@_1M@EANAGDL@?$AAn?$AAb?$AA?9?$AAN?$AAO?$AA?$AA@ 10035b8c     libucrt:lcidtoname_downlevel.obj
 0002:00003b98       ??_C@_1M@NEIEMEGP@?$AAp?$AAl?$AA?9?$AAP?$AAL?$AA?$AA@ 10035b98     libucrt:lcidtoname_downlevel.obj
 0002:00003ba4       ??_C@_1M@BOCFIGEP@?$AAp?$AAt?$AA?9?$AAB?$AAR?$AA?$AA@ 10035ba4     libucrt:lcidtoname_downlevel.obj
 0002:00003bb0       ??_C@_1M@IMPFOPBG@?$AAr?$AAo?$AA?9?$AAR?$AAO?$AA?$AA@ 10035bb0     libucrt:lcidtoname_downlevel.obj
 0002:00003bbc       ??_C@_1M@IDNNEJMM@?$AAr?$AAu?$AA?9?$AAR?$AAU?$AA?$AA@ 10035bbc     libucrt:lcidtoname_downlevel.obj
 0002:00003bc8       ??_C@_1M@LILEEOGM@?$AAh?$AAr?$AA?9?$AAH?$AAR?$AA?$AA@ 10035bc8     libucrt:lcidtoname_downlevel.obj
 0002:00003bd4       ??_C@_1M@FKIFEHPB@?$AAs?$AAk?$AA?9?$AAS?$AAK?$AA?$AA@ 10035bd4     libucrt:lcidtoname_downlevel.obj
 0002:00003be0       ??_C@_1M@LJMAMNPJ@?$AAs?$AAq?$AA?9?$AAA?$AAL?$AA?$AA@ 10035be0     libucrt:lcidtoname_downlevel.obj
 0002:00003bec       ??_C@_1M@GIAKDKJK@?$AAs?$AAv?$AA?9?$AAS?$AAE?$AA?$AA@ 10035bec     libucrt:lcidtoname_downlevel.obj
 0002:00003bf8       ??_C@_1M@MKJKIKCL@?$AAt?$AAh?$AA?9?$AAT?$AAH?$AA?$AA@ 10035bf8     libucrt:lcidtoname_downlevel.obj
 0002:00003c04       ??_C@_1M@MFLCCMPB@?$AAt?$AAr?$AA?9?$AAT?$AAR?$AA?$AA@ 10035c04     libucrt:lcidtoname_downlevel.obj
 0002:00003c10       ??_C@_1M@OIJHDKJN@?$AAu?$AAr?$AA?9?$AAP?$AAK?$AA?$AA@ 10035c10     libucrt:lcidtoname_downlevel.obj
 0002:00003c1c       ??_C@_1M@LHIPCIEK@?$AAi?$AAd?$AA?9?$AAI?$AAD?$AA?$AA@ 10035c1c     libucrt:lcidtoname_downlevel.obj
 0002:00003c28       ??_C@_1M@MFMOBGI@?$AAu?$AAk?$AA?9?$AAU?$AAA?$AA?$AA@ 10035c28     libucrt:lcidtoname_downlevel.obj
 0002:00003c34       ??_C@_1M@OBGLJIPL@?$AAb?$AAe?$AA?9?$AAB?$AAY?$AA?$AA@ 10035c34     libucrt:lcidtoname_downlevel.obj
 0002:00003c40       ??_C@_1M@BCFAJEAD@?$AAs?$AAl?$AA?9?$AAS?$AAI?$AA?$AA@ 10035c40     libucrt:lcidtoname_downlevel.obj
 0002:00003c4c       ??_C@_1M@FKFFEDDN@?$AAe?$AAt?$AA?9?$AAE?$AAE?$AA?$AA@ 10035c4c     libucrt:lcidtoname_downlevel.obj
 0002:00003c58       ??_C@_1M@KGKKAACI@?$AAl?$AAv?$AA?9?$AAL?$AAV?$AA?$AA@ 10035c58     libucrt:lcidtoname_downlevel.obj
 0002:00003c64       ??_C@_1M@IFGBIJO@?$AAl?$AAt?$AA?9?$AAL?$AAT?$AA?$AA@ 10035c64     libucrt:lcidtoname_downlevel.obj
 0002:00003c70       ??_C@_1M@FGEAHEDM@?$AAf?$AAa?$AA?9?$AAI?$AAR?$AA?$AA@ 10035c70     libucrt:lcidtoname_downlevel.obj
 0002:00003c7c       ??_C@_1M@KBMAIBFN@?$AAv?$AAi?$AA?9?$AAV?$AAN?$AA?$AA@ 10035c7c     libucrt:lcidtoname_downlevel.obj
 0002:00003c88       ??_C@_1M@GPCBKDJK@?$AAh?$AAy?$AA?9?$AAA?$AAM?$AA?$AA@ 10035c88     libucrt:lcidtoname_downlevel.obj
 0002:00003c94       ??_C@_1BG@BECMDDJB@?$AAa?$AAz?$AA?9?$AAA?$AAZ?$AA?9?$AAL?$AAa?$AAt?$AAn?$AA?$AA@ 10035c94     libucrt:lcidtoname_downlevel.obj
 0002:00003cac       ??_C@_1M@MAOFCAEA@?$AAe?$AAu?$AA?9?$AAE?$AAS?$AA?$AA@ 10035cac     libucrt:lcidtoname_downlevel.obj
 0002:00003cb8       ??_C@_1M@IGHABKPI@?$AAm?$AAk?$AA?9?$AAM?$AAK?$AA?$AA@ 10035cb8     libucrt:lcidtoname_downlevel.obj
 0002:00003cc4       ??_C@_1M@IAIGNEJG@?$AAt?$AAn?$AA?9?$AAZ?$AAA?$AA?$AA@ 10035cc4     libucrt:lcidtoname_downlevel.obj
 0002:00003cd0       ??_C@_1M@IIJCOJFA@?$AAx?$AAh?$AA?9?$AAZ?$AAA?$AA?$AA@ 10035cd0     libucrt:lcidtoname_downlevel.obj
 0002:00003cdc       ??_C@_1M@LGPJHNJH@?$AAz?$AAu?$AA?9?$AAZ?$AAA?$AA?$AA@ 10035cdc     libucrt:lcidtoname_downlevel.obj
 0002:00003ce8       ??_C@_1M@HOKAOIO@?$AAa?$AAf?$AA?9?$AAZ?$AAA?$AA?$AA@ 10035ce8     libucrt:lcidtoname_downlevel.obj
 0002:00003cf4       ??_C@_1M@DPCLHLIE@?$AAk?$AAa?$AA?9?$AAG?$AAE?$AA?$AA@ 10035cf4     libucrt:lcidtoname_downlevel.obj
 0002:00003d00       ??_C@_1M@BLKMHJBI@?$AAf?$AAo?$AA?9?$AAF?$AAO?$AA?$AA@ 10035d00     libucrt:lcidtoname_downlevel.obj
 0002:00003d0c       ??_C@_1M@LGGJAPPB@?$AAh?$AAi?$AA?9?$AAI?$AAN?$AA?$AA@ 10035d0c     libucrt:lcidtoname_downlevel.obj
 0002:00003d18       ??_C@_1M@FIKPIHFE@?$AAm?$AAt?$AA?9?$AAM?$AAT?$AA?$AA@ 10035d18     libucrt:lcidtoname_downlevel.obj
 0002:00003d24       ??_C@_1M@HEGGPBFA@?$AAs?$AAe?$AA?9?$AAN?$AAO?$AA?$AA@ 10035d24     libucrt:lcidtoname_downlevel.obj
 0002:00003d30       ??_C@_1M@EIBJEEPA@?$AAm?$AAs?$AA?9?$AAM?$AAY?$AA?$AA@ 10035d30     libucrt:lcidtoname_downlevel.obj
 0002:00003d3c       ??_C@_1M@FHLBGMPP@?$AAk?$AAk?$AA?9?$AAK?$AAZ?$AA?$AA@ 10035d3c     libucrt:lcidtoname_downlevel.obj
 0002:00003d48       ??_C@_1M@NGJJLCGI@?$AAk?$AAy?$AA?9?$AAK?$AAG?$AA?$AA@ 10035d48     libucrt:lcidtoname_downlevel.obj
 0002:00003d54       ??_C@_1M@GIENNBFC@?$AAs?$AAw?$AA?9?$AAK?$AAE?$AA?$AA@ 10035d54     libucrt:lcidtoname_downlevel.obj
 0002:00003d60       ??_C@_1BG@NDGMJIMJ@?$AAu?$AAz?$AA?9?$AAU?$AAZ?$AA?9?$AAL?$AAa?$AAt?$AAn?$AA?$AA@ 10035d60     libucrt:lcidtoname_downlevel.obj
 0002:00003d78       ??_C@_1M@IDCCIHBC@?$AAt?$AAt?$AA?9?$AAR?$AAU?$AA?$AA@ 10035d78     libucrt:lcidtoname_downlevel.obj
 0002:00003d84       ??_C@_1M@LOICPMOJ@?$AAb?$AAn?$AA?9?$AAI?$AAN?$AA?$AA@ 10035d84     libucrt:lcidtoname_downlevel.obj
 0002:00003d90       ??_C@_1M@KPKKNEAH@?$AAp?$AAa?$AA?9?$AAI?$AAN?$AA?$AA@ 10035d90     libucrt:lcidtoname_downlevel.obj
 0002:00003d9c       ??_C@_1M@PJGPPBOG@?$AAg?$AAu?$AA?9?$AAI?$AAN?$AA?$AA@ 10035d9c     libucrt:lcidtoname_downlevel.obj
 0002:00003da8       ??_C@_1M@KMKMOPHI@?$AAt?$AAa?$AA?9?$AAI?$AAN?$AA?$AA@ 10035da8     libucrt:lcidtoname_downlevel.obj
 0002:00003db4       ??_C@_1M@KFEHEPAC@?$AAt?$AAe?$AA?9?$AAI?$AAN?$AA?$AA@ 10035db4     libucrt:lcidtoname_downlevel.obj
 0002:00003dc0       ??_C@_1M@CDCLMGHI@?$AAk?$AAn?$AA?9?$AAI?$AAN?$AA?$AA@ 10035dc0     libucrt:lcidtoname_downlevel.obj
 0002:00003dcc       ??_C@_1M@MIODLDKF@?$AAm?$AAl?$AA?9?$AAI?$AAN?$AA?$AA@ 10035dcc     libucrt:lcidtoname_downlevel.obj
 0002:00003dd8       ??_C@_1M@PBIEACPO@?$AAm?$AAr?$AA?9?$AAI?$AAN?$AA?$AA@ 10035dd8     libucrt:lcidtoname_downlevel.obj
 0002:00003de4       ??_C@_1M@NIDEAGPH@?$AAs?$AAa?$AA?9?$AAI?$AAN?$AA?$AA@ 10035de4     libucrt:lcidtoname_downlevel.obj
 0002:00003df0       ??_C@_1M@FHIHCBIO@?$AAm?$AAn?$AA?9?$AAM?$AAN?$AA?$AA@ 10035df0     libucrt:lcidtoname_downlevel.obj
 0002:00003dfc       ??_C@_1M@JAIJPENP@?$AAc?$AAy?$AA?9?$AAG?$AAB?$AA?$AA@ 10035dfc     libucrt:lcidtoname_downlevel.obj
 0002:00003e08       ??_C@_1M@PHGFBEPN@?$AAg?$AAl?$AA?9?$AAE?$AAS?$AA?$AA@ 10035e08     libucrt:lcidtoname_downlevel.obj
 0002:00003e14       ??_C@_1O@KPIPDNCP@?$AAk?$AAo?$AAk?$AA?9?$AAI?$AAN?$AA?$AA@ 10035e14     libucrt:lcidtoname_downlevel.obj
 0002:00003e24       ??_C@_1O@KNHJLDJA@?$AAs?$AAy?$AAr?$AA?9?$AAS?$AAY?$AA?$AA@ 10035e24     libucrt:lcidtoname_downlevel.obj
 0002:00003e34       ??_C@_1O@MKEKBLAH@?$AAd?$AAi?$AAv?$AA?9?$AAM?$AAV?$AA?$AA@ 10035e34     libucrt:lcidtoname_downlevel.obj
 0002:00003e44       ??_C@_1O@OHDCKDDF@?$AAq?$AAu?$AAz?$AA?9?$AAB?$AAO?$AA?$AA@ 10035e44     libucrt:lcidtoname_downlevel.obj
 0002:00003e54       ??_C@_1M@LEPJNLFD@?$AAn?$AAs?$AA?9?$AAZ?$AAA?$AA?$AA@ 10035e54     libucrt:lcidtoname_downlevel.obj
 0002:00003e60       ??_C@_1M@OMLEIIJB@?$AAm?$AAi?$AA?9?$AAN?$AAZ?$AA?$AA@ 10035e60     libucrt:lcidtoname_downlevel.obj
 0002:00003e6c       ??_C@_1M@PMPEAILG@?$AAa?$AAr?$AA?9?$AAI?$AAQ?$AA?$AA@ 10035e6c     libucrt:lcidtoname_downlevel.obj
 0002:00003e78       ??_C@_1M@CNKPNOEE@?$AAd?$AAe?$AA?9?$AAC?$AAH?$AA?$AA@ 10035e78     libucrt:lcidtoname_downlevel.obj
 0002:00003e84       ??_C@_1M@LKMGMLKO@?$AAe?$AAn?$AA?9?$AAG?$AAB?$AA?$AA@ 10035e84     libucrt:lcidtoname_downlevel.obj
 0002:00003e90       ??_C@_1M@PGKJFFGL@?$AAe?$AAs?$AA?9?$AAM?$AAX?$AA?$AA@ 10035e90     libucrt:lcidtoname_downlevel.obj
 0002:00003e9c       ??_C@_1M@DNNANBDC@?$AAf?$AAr?$AA?9?$AAB?$AAE?$AA?$AA@ 10035e9c     libucrt:lcidtoname_downlevel.obj
 0002:00003ea8       ??_C@_1M@HLGMDFHM@?$AAi?$AAt?$AA?9?$AAC?$AAH?$AA?$AA@ 10035ea8     libucrt:lcidtoname_downlevel.obj
 0002:00003eb4       ??_C@_1M@CLLBGJH@?$AAn?$AAl?$AA?9?$AAB?$AAE?$AA?$AA@ 10035eb4     libucrt:lcidtoname_downlevel.obj
 0002:00003ec0       ??_C@_1M@BODBOGLF@?$AAn?$AAn?$AA?9?$AAN?$AAO?$AA?$AA@ 10035ec0     libucrt:lcidtoname_downlevel.obj
 0002:00003ecc       ??_C@_1M@HFFAHKAD@?$AAp?$AAt?$AA?9?$AAP?$AAT?$AA?$AA@ 10035ecc     libucrt:lcidtoname_downlevel.obj
 0002:00003ed8       ??_C@_1BG@LNOAKHIE@?$AAs?$AAr?$AA?9?$AAS?$AAP?$AA?9?$AAL?$AAa?$AAt?$AAn?$AA?$AA@ 10035ed8     libucrt:lcidtoname_downlevel.obj
 0002:00003ef0       ??_C@_1M@HBMHBGAK@?$AAs?$AAv?$AA?9?$AAF?$AAI?$AA?$AA@ 10035ef0     libucrt:lcidtoname_downlevel.obj
 0002:00003efc       ??_C@_1BG@DGCJGJBE@?$AAa?$AAz?$AA?9?$AAA?$AAZ?$AA?9?$AAC?$AAy?$AAr?$AAl?$AA?$AA@ 10035efc     libucrt:lcidtoname_downlevel.obj
 0002:00003f14       ??_C@_1M@KEJDAAHB@?$AAs?$AAe?$AA?9?$AAS?$AAE?$AA?$AA@ 10035f14     libucrt:lcidtoname_downlevel.obj
 0002:00003f20       ??_C@_1M@HEIBJJAD@?$AAm?$AAs?$AA?9?$AAB?$AAN?$AA?$AA@ 10035f20     libucrt:lcidtoname_downlevel.obj
 0002:00003f2c       ??_C@_1BG@PBGJMCEM@?$AAu?$AAz?$AA?9?$AAU?$AAZ?$AA?9?$AAC?$AAy?$AAr?$AAl?$AA?$AA@ 10035f2c     libucrt:lcidtoname_downlevel.obj
 0002:00003f44       ??_C@_1O@LAOBCMDF@?$AAq?$AAu?$AAz?$AA?9?$AAE?$AAC?$AA?$AA@ 10035f44     libucrt:lcidtoname_downlevel.obj
 0002:00003f54       ??_C@_1M@POEEMAIO@?$AAa?$AAr?$AA?9?$AAE?$AAG?$AA?$AA@ 10035f54     libucrt:lcidtoname_downlevel.obj
 0002:00003f60       ??_C@_1M@EFAKDEDL@?$AAz?$AAh?$AA?9?$AAH?$AAK?$AA?$AA@ 10035f60     libucrt:lcidtoname_downlevel.obj
 0002:00003f6c       ??_C@_1M@HKKIJHGI@?$AAd?$AAe?$AA?9?$AAA?$AAT?$AA?$AA@ 10035f6c     libucrt:lcidtoname_downlevel.obj
 0002:00003f78       ??_C@_1M@KBFBEHJF@?$AAe?$AAn?$AA?9?$AAA?$AAU?$AA?$AA@ 10035f78     libucrt:lcidtoname_downlevel.obj
 0002:00003f84       ??_C@_1M@MNPLFAAH@?$AAe?$AAs?$AA?9?$AAE?$AAS?$AA?$AA@ 10035f84     libucrt:lcidtoname_downlevel.obj
 0002:00003f90       ??_C@_1M@HJOOJFMA@?$AAf?$AAr?$AA?9?$AAC?$AAA?$AA?$AA@ 10035f90     libucrt:lcidtoname_downlevel.obj
 0002:00003f9c       ??_C@_1BG@JPOFPNAB@?$AAs?$AAr?$AA?9?$AAS?$AAP?$AA?9?$AAC?$AAy?$AAr?$AAl?$AA?$AA@ 10035f9c     libucrt:lcidtoname_downlevel.obj
 0002:00003fb4       ??_C@_1M@LNFOCMOB@?$AAs?$AAe?$AA?9?$AAF?$AAI?$AA?$AA@ 10035fb4     libucrt:lcidtoname_downlevel.obj
 0002:00003fc0       ??_C@_1O@MGJBOAMB@?$AAq?$AAu?$AAz?$AA?9?$AAP?$AAE?$AA?$AA@ 10035fc0     libucrt:lcidtoname_downlevel.obj
 0002:00003fd0       ??_C@_1M@GJINLBOK@?$AAa?$AAr?$AA?9?$AAL?$AAY?$AA?$AA@ 10035fd0     libucrt:lcidtoname_downlevel.obj
 0002:00003fdc       ??_C@_1M@GGMNHJNL@?$AAz?$AAh?$AA?9?$AAS?$AAG?$AA?$AA@ 10035fdc     libucrt:lcidtoname_downlevel.obj
 0002:00003fe8       ??_C@_1M@HOIKODND@?$AAd?$AAe?$AA?9?$AAL?$AAU?$AA?$AA@ 10035fe8     libucrt:lcidtoname_downlevel.obj
 0002:00003ff4       ??_C@_1M@DDOCCGFG@?$AAe?$AAn?$AA?9?$AAC?$AAA?$AA?$AA@ 10035ff4     libucrt:lcidtoname_downlevel.obj
 0002:00004000       ??_C@_1M@BNOEMJLF@?$AAe?$AAs?$AA?9?$AAG?$AAT?$AA?$AA@ 10036000     libucrt:lcidtoname_downlevel.obj
 0002:0000400c       ??_C@_1M@EOGNKEK@?$AAf?$AAr?$AA?9?$AAC?$AAH?$AA?$AA@ 1003600c     libucrt:lcidtoname_downlevel.obj
 0002:00004018       ??_C@_1M@FLIDJFHL@?$AAh?$AAr?$AA?9?$AAB?$AAA?$AA?$AA@ 10036018     libucrt:lcidtoname_downlevel.obj
 0002:00004024       ??_C@_1O@FMCELNAJ@?$AAs?$AAm?$AAj?$AA?9?$AAN?$AAO?$AA?$AA@ 10036024     libucrt:lcidtoname_downlevel.obj
 0002:00004034       ??_C@_1M@JHGLJMGJ@?$AAa?$AAr?$AA?9?$AAD?$AAZ?$AA?$AA@ 10036034     libucrt:lcidtoname_downlevel.obj
 0002:00004040       ??_C@_1M@JKKFDCNP@?$AAz?$AAh?$AA?9?$AAM?$AAO?$AA?$AA@ 10036040     libucrt:lcidtoname_downlevel.obj
 0002:0000404c       ??_C@_1M@GEEFALPE@?$AAd?$AAe?$AA?9?$AAL?$AAI?$AA?$AA@ 1003604c     libucrt:lcidtoname_downlevel.obj
 0002:00004058       ??_C@_1M@IGEOFBG@?$AAe?$AAn?$AA?9?$AAN?$AAZ?$AA?$AA@ 10036058     libucrt:lcidtoname_downlevel.obj
 0002:00004064       ??_C@_1M@KDBONEHP@?$AAe?$AAs?$AA?9?$AAC?$AAR?$AA?$AA@ 10036064     libucrt:lcidtoname_downlevel.obj
 0002:00004070       ??_C@_1M@FHMDOHNN@?$AAf?$AAr?$AA?9?$AAL?$AAU?$AA?$AA@ 10036070     libucrt:lcidtoname_downlevel.obj
 0002:0000407c       ??_C@_1BG@NFKKMAFG@?$AAb?$AAs?$AA?9?$AAB?$AAA?$AA?9?$AAL?$AAa?$AAt?$AAn?$AA?$AA@ 1003607c     libucrt:lcidtoname_downlevel.obj
 0002:00004094       ??_C@_1O@IMNBEMCI@?$AAs?$AAm?$AAj?$AA?9?$AAS?$AAE?$AA?$AA@ 10036094     libucrt:lcidtoname_downlevel.obj
 0002:000040a4       ??_C@_1M@DHHMBNDP@?$AAa?$AAr?$AA?9?$AAM?$AAA?$AA?$AA@ 100360a4     libucrt:lcidtoname_downlevel.obj
 0002:000040b0       ??_C@_1M@BNBLJCGH@?$AAe?$AAn?$AA?9?$AAI?$AAE?$AA?$AA@ 100360b0     libucrt:lcidtoname_downlevel.obj
 0002:000040bc       ??_C@_1M@GEPAFMDL@?$AAe?$AAs?$AA?9?$AAP?$AAA?$AA?$AA@ 100360bc     libucrt:lcidtoname_downlevel.obj
 0002:000040c8       ??_C@_1M@OJONDMDL@?$AAf?$AAr?$AA?9?$AAM?$AAC?$AA?$AA@ 100360c8     libucrt:lcidtoname_downlevel.obj
 0002:000040d4       ??_C@_1BG@OBCNFJB@?$AAs?$AAr?$AA?9?$AAB?$AAA?$AA?9?$AAL?$AAa?$AAt?$AAn?$AA?$AA@ 100360d4     libucrt:lcidtoname_downlevel.obj
 0002:000040ec       ??_C@_1O@KEMEEGPO@?$AAs?$AAm?$AAa?$AA?9?$AAN?$AAO?$AA?$AA@ 100360ec     libucrt:lcidtoname_downlevel.obj
 0002:000040fc       ??_C@_1M@ELMGFODK@?$AAa?$AAr?$AA?9?$AAT?$AAN?$AA?$AA@ 100360fc     libucrt:lcidtoname_downlevel.obj
 0002:00004108       ??_C@_1M@BHDLHFAF@?$AAe?$AAn?$AA?9?$AAZ?$AAA?$AA?$AA@ 10036108     libucrt:lcidtoname_downlevel.obj
 0002:00004114       ??_C@_1M@BMGIGLIF@?$AAe?$AAs?$AA?9?$AAD?$AAO?$AA?$AA@ 10036114     libucrt:lcidtoname_downlevel.obj
 0002:00004120       ??_C@_1BG@CMBHIPBE@?$AAs?$AAr?$AA?9?$AAB?$AAA?$AA?9?$AAC?$AAy?$AAr?$AAl?$AA?$AA@ 10036120     libucrt:lcidtoname_downlevel.obj
 0002:00004138       ??_C@_1O@HEDBLHNP@?$AAs?$AAm?$AAa?$AA?9?$AAS?$AAE?$AA?$AA@ 10036138     libucrt:lcidtoname_downlevel.obj
 0002:00004148       ??_C@_1M@DAGCADIM@?$AAa?$AAr?$AA?9?$AAO?$AAM?$AA?$AA@ 10036148     libucrt:lcidtoname_downlevel.obj
 0002:00004154       ??_C@_1M@FODLMICG@?$AAe?$AAn?$AA?9?$AAJ?$AAM?$AA?$AA@ 10036154     libucrt:lcidtoname_downlevel.obj
 0002:00004160       ??_C@_1M@DNMLCIHB@?$AAe?$AAs?$AA?9?$AAV?$AAE?$AA?$AA@ 10036160     libucrt:lcidtoname_downlevel.obj
 0002:0000416c       ??_C@_1O@EOKHMKJK@?$AAs?$AAm?$AAs?$AA?9?$AAF?$AAI?$AA?$AA@ 1003616c     libucrt:lcidtoname_downlevel.obj
 0002:0000417c       ??_C@_1M@CAFJMKOF@?$AAa?$AAr?$AA?9?$AAY?$AAE?$AA?$AA@ 1003617c     libucrt:lcidtoname_downlevel.obj
 0002:00004188       ??_C@_1M@CBFHIJLI@?$AAe?$AAn?$AA?9?$AAC?$AAB?$AA?$AA@ 10036188     libucrt:lcidtoname_downlevel.obj
 0002:00004194       ??_C@_1M@BGNFLDN@?$AAe?$AAs?$AA?9?$AAC?$AAO?$AA?$AA@ 10036194     libucrt:lcidtoname_downlevel.obj
 0002:000041a0       ??_C@_1O@JMPHMAMC@?$AAs?$AAm?$AAn?$AA?9?$AAF?$AAI?$AA?$AA@ 100361a0     libucrt:lcidtoname_downlevel.obj
 0002:000041b0       ??_C@_1M@JLANABKE@?$AAa?$AAr?$AA?9?$AAS?$AAY?$AA?$AA@ 100361b0     libucrt:lcidtoname_downlevel.obj
 0002:000041bc       ??_C@_1M@HPKGCFGN@?$AAe?$AAn?$AA?9?$AAB?$AAZ?$AA?$AA@ 100361bc     libucrt:lcidtoname_downlevel.obj
 0002:000041c8       ??_C@_1M@OLJCMLGM@?$AAe?$AAs?$AA?9?$AAP?$AAE?$AA?$AA@ 100361c8     libucrt:lcidtoname_downlevel.obj
 0002:000041d4       ??_C@_1M@MKKGFKLE@?$AAa?$AAr?$AA?9?$AAJ?$AAO?$AA?$AA@ 100361d4     libucrt:lcidtoname_downlevel.obj
 0002:000041e0       ??_C@_1M@EKPGLDNI@?$AAe?$AAn?$AA?9?$AAT?$AAT?$AA?$AA@ 100361e0     libucrt:lcidtoname_downlevel.obj
 0002:000041ec       ??_C@_1M@OONGHFHE@?$AAe?$AAs?$AA?9?$AAA?$AAR?$AA?$AA@ 100361ec     libucrt:lcidtoname_downlevel.obj
 0002:000041f8       ??_C@_1M@OOJFGBHE@?$AAa?$AAr?$AA?9?$AAL?$AAB?$AA?$AA@ 100361f8     libucrt:lcidtoname_downlevel.obj
 0002:00004204       ??_C@_1M@GCEJHNEG@?$AAe?$AAn?$AA?9?$AAZ?$AAW?$AA?$AA@ 10036204     libucrt:lcidtoname_downlevel.obj
 0002:00004210       ??_C@_1M@JNOCAHJI@?$AAe?$AAs?$AA?9?$AAE?$AAC?$AA?$AA@ 10036210     libucrt:lcidtoname_downlevel.obj
 0002:0000421c       ??_C@_1M@JEFHPGGB@?$AAa?$AAr?$AA?9?$AAK?$AAW?$AA?$AA@ 1003621c     libucrt:lcidtoname_downlevel.obj
 0002:00004228       ??_C@_1M@MLKIBJOJ@?$AAe?$AAn?$AA?9?$AAP?$AAH?$AA?$AA@ 10036228     libucrt:lcidtoname_downlevel.obj
 0002:00004234       ??_C@_1M@BDNIPEND@?$AAe?$AAs?$AA?9?$AAC?$AAL?$AA?$AA@ 10036234     libucrt:lcidtoname_downlevel.obj
 0002:00004240       ??_C@_1M@MPNMEKBD@?$AAa?$AAr?$AA?9?$AAA?$AAE?$AA?$AA@ 10036240     libucrt:lcidtoname_downlevel.obj
 0002:0000424c       ??_C@_1M@KBJALCPI@?$AAe?$AAs?$AA?9?$AAU?$AAY?$AA?$AA@ 1003624c     libucrt:lcidtoname_downlevel.obj
 0002:00004258       ??_C@_1M@LLCCOAGA@?$AAa?$AAr?$AA?9?$AAB?$AAH?$AA?$AA@ 10036258     libucrt:lcidtoname_downlevel.obj
 0002:00004264       ??_C@_1M@PBFNCDEL@?$AAe?$AAs?$AA?9?$AAP?$AAY?$AA?$AA@ 10036264     libucrt:lcidtoname_downlevel.obj
 0002:00004270       ??_C@_1M@EDGINPNP@?$AAa?$AAr?$AA?9?$AAQ?$AAA?$AA?$AA@ 10036270     libucrt:lcidtoname_downlevel.obj
 0002:0000427c       ??_C@_1M@MKDBIIJI@?$AAe?$AAs?$AA?9?$AAB?$AAO?$AA?$AA@ 1003627c     libucrt:lcidtoname_downlevel.obj
 0002:00004288       ??_C@_1M@CPKKEBLD@?$AAe?$AAs?$AA?9?$AAS?$AAV?$AA?$AA@ 10036288     libucrt:lcidtoname_downlevel.obj
 0002:00004294       ??_C@_1M@NDBGMMJL@?$AAe?$AAs?$AA?9?$AAH?$AAN?$AA?$AA@ 10036294     libucrt:lcidtoname_downlevel.obj
 0002:000042a0       ??_C@_1M@JIJIBHDP@?$AAe?$AAs?$AA?9?$AAN?$AAI?$AA?$AA@ 100362a0     libucrt:lcidtoname_downlevel.obj
 0002:000042ac       ??_C@_1M@CGFMKEEK@?$AAe?$AAs?$AA?9?$AAP?$AAR?$AA?$AA@ 100362ac     libucrt:lcidtoname_downlevel.obj
 0002:000042b8       ??_C@_1O@ICJHKIIK@?$AAz?$AAh?$AA?9?$AAC?$AAH?$AAT?$AA?$AA@ 100362b8     libucrt:lcidtoname_downlevel.obj
 0002:000042c8       ??_C@_15CLNEJCE@?$AAs?$AAr?$AA?$AA@ 100362c8     libucrt:lcidtoname_downlevel.obj
 0002:000049f0       ??_C@_1M@KAHEKEIG@?$AAa?$AAf?$AA?9?$AAz?$AAa?$AA?$AA@ 100369f0     libucrt:lcidtoname_downlevel.obj
 0002:000049fc       ??_C@_1M@GIECOABL@?$AAa?$AAr?$AA?9?$AAa?$AAe?$AA?$AA@ 100369fc     libucrt:lcidtoname_downlevel.obj
 0002:00004a08       ??_C@_1M@BMLMEKGI@?$AAa?$AAr?$AA?9?$AAb?$AAh?$AA?$AA@ 10036a08     libucrt:lcidtoname_downlevel.obj
 0002:00004a14       ??_C@_1M@DAPFDGGB@?$AAa?$AAr?$AA?9?$AAd?$AAz?$AA?$AA@ 10036a14     libucrt:lcidtoname_downlevel.obj
 0002:00004a20       ??_C@_1M@FJNKGKIG@?$AAa?$AAr?$AA?9?$AAe?$AAg?$AA?$AA@ 10036a20     libucrt:lcidtoname_downlevel.obj
 0002:00004a2c       ??_C@_1M@FLGKKCLO@?$AAa?$AAr?$AA?9?$AAi?$AAq?$AA?$AA@ 10036a2c     libucrt:lcidtoname_downlevel.obj
 0002:00004a38       ??_C@_1M@GNDIPALM@?$AAa?$AAr?$AA?9?$AAj?$AAo?$AA?$AA@ 10036a38     libucrt:lcidtoname_downlevel.obj
 0002:00004a44       ??_C@_1M@DDMJFMGJ@?$AAa?$AAr?$AA?9?$AAk?$AAw?$AA?$AA@ 10036a44     libucrt:lcidtoname_downlevel.obj
 0002:00004a50       ??_C@_1M@EJALMLHM@?$AAa?$AAr?$AA?9?$AAl?$AAb?$AA?$AA@ 10036a50     libucrt:lcidtoname_downlevel.obj
 0002:00004a5c       ??_C@_1M@MOBDBLOC@?$AAa?$AAr?$AA?9?$AAl?$AAy?$AA?$AA@ 10036a5c     libucrt:lcidtoname_downlevel.obj
 0002:00004a68       ??_C@_1M@JAOCLHDH@?$AAa?$AAr?$AA?9?$AAm?$AAa?$AA?$AA@ 10036a68     libucrt:lcidtoname_downlevel.obj
 0002:00004a74       ??_C@_1M@JHPMKJIE@?$AAa?$AAr?$AA?9?$AAo?$AAm?$AA?$AA@ 10036a74     libucrt:lcidtoname_downlevel.obj
 0002:00004a80       ??_C@_1M@OEPGHFNH@?$AAa?$AAr?$AA?9?$AAq?$AAa?$AA?$AA@ 10036a80     libucrt:lcidtoname_downlevel.obj
 0002:00004a8c       ??_C@_1M@KJDONENM@?$AAa?$AAr?$AA?9?$AAs?$AAa?$AA?$AA@ 10036a8c     libucrt:lcidtoname_downlevel.obj
 0002:00004a98       ??_C@_1M@DMJDKLKM@?$AAa?$AAr?$AA?9?$AAs?$AAy?$AA?$AA@ 10036a98     libucrt:lcidtoname_downlevel.obj
 0002:00004aa4       ??_C@_1M@OMFIPEDC@?$AAa?$AAr?$AA?9?$AAt?$AAn?$AA?$AA@ 10036aa4     libucrt:lcidtoname_downlevel.obj
 0002:00004ab0       ??_C@_1M@IHMHGAON@?$AAa?$AAr?$AA?9?$AAy?$AAe?$AA?$AA@ 10036ab0     libucrt:lcidtoname_downlevel.obj
 0002:00004abc       ??_C@_1BG@KDCPGJGB@?$AAa?$AAz?$AA?9?$AAa?$AAz?$AA?9?$AAc?$AAy?$AAr?$AAl?$AA?$AA@ 10036abc     libucrt:lcidtoname_downlevel.obj
 0002:00004ad4       ??_C@_1BG@IBCKDDOE@?$AAa?$AAz?$AA?9?$AAa?$AAz?$AA?9?$AAl?$AAa?$AAt?$AAn?$AA?$AA@ 10036ad4     libucrt:lcidtoname_downlevel.obj
 0002:00004aec       ??_C@_1M@EGPFDCPD@?$AAb?$AAe?$AA?9?$AAb?$AAy?$AA?$AA@ 10036aec     libucrt:lcidtoname_downlevel.obj
 0002:00004af8       ??_C@_1M@PCMGMCGC@?$AAb?$AAg?$AA?9?$AAb?$AAg?$AA?$AA@ 10036af8     libucrt:lcidtoname_downlevel.obj
 0002:00004b04       ??_C@_1M@BJBMFGOB@?$AAb?$AAn?$AA?9?$AAi?$AAn?$AA?$AA@ 10036b04     libucrt:lcidtoname_downlevel.obj
 0002:00004b10       ??_C@_1BG@EAKMMACD@?$AAb?$AAs?$AA?9?$AAb?$AAa?$AA?9?$AAl?$AAa?$AAt?$AAn?$AA?$AA@ 10036b10     libucrt:lcidtoname_downlevel.obj
 0002:00004b28       ??_C@_1M@KGADAODK@?$AAc?$AAa?$AA?9?$AAe?$AAs?$AA?$AA@ 10036b28     libucrt:lcidtoname_downlevel.obj
 0002:00004b34       ??_C@_1M@COAJPDHI@?$AAc?$AAs?$AA?9?$AAc?$AAz?$AA?$AA@ 10036b34     libucrt:lcidtoname_downlevel.obj
 0002:00004b40       ??_C@_1M@DHBHFONH@?$AAc?$AAy?$AA?9?$AAg?$AAb?$AA?$AA@ 10036b40     libucrt:lcidtoname_downlevel.obj
 0002:00004b4c       ??_C@_1M@IMGKELGA@?$AAd?$AAa?$AA?9?$AAd?$AAk?$AA?$AA@ 10036b4c     libucrt:lcidtoname_downlevel.obj
 0002:00004b58       ??_C@_1M@NNDGDNGA@?$AAd?$AAe?$AA?9?$AAa?$AAt?$AA?$AA@ 10036b58     libucrt:lcidtoname_downlevel.obj
 0002:00004b64       ??_C@_1M@IKDBHEEM@?$AAd?$AAe?$AA?9?$AAc?$AAh?$AA?$AA@ 10036b64     libucrt:lcidtoname_downlevel.obj
 0002:00004b70       ??_C@_1M@GFFOJMCJ@?$AAd?$AAe?$AA?9?$AAd?$AAe?$AA?$AA@ 10036b70     libucrt:lcidtoname_downlevel.obj
 0002:00004b7c       ??_C@_1M@MDNLKBPM@?$AAd?$AAe?$AA?9?$AAl?$AAi?$AA?$AA@ 10036b7c     libucrt:lcidtoname_downlevel.obj
 0002:00004b88       ??_C@_1M@NJBEEJNL@?$AAd?$AAe?$AA?9?$AAl?$AAu?$AA?$AA@ 10036b88     libucrt:lcidtoname_downlevel.obj
 0002:00004b94       ??_C@_1O@GNNELBAP@?$AAd?$AAi?$AAv?$AA?9?$AAm?$AAv?$AA?$AA@ 10036b94     libucrt:lcidtoname_downlevel.obj
 0002:00004ba4       ??_C@_1M@EJLEOGAE@?$AAe?$AAl?$AA?9?$AAg?$AAr?$AA?$AA@ 10036ba4     libucrt:lcidtoname_downlevel.obj
 0002:00004bb0       ??_C@_1M@GMPONJN@?$AAe?$AAn?$AA?9?$AAa?$AAu?$AA?$AA@ 10036bb0     libucrt:lcidtoname_downlevel.obj
 0002:00004bbc       ??_C@_1M@NIDIIPGF@?$AAe?$AAn?$AA?9?$AAb?$AAz?$AA?$AA@ 10036bbc     libucrt:lcidtoname_downlevel.obj
 0002:00004bc8       ??_C@_1M@JEHMIMFO@?$AAe?$AAn?$AA?9?$AAc?$AAa?$AA?$AA@ 10036bc8     libucrt:lcidtoname_downlevel.obj
 0002:00004bd4       ??_C@_1M@IGMJCDLA@?$AAe?$AAn?$AA?9?$AAc?$AAb?$AA?$AA@ 10036bd4     libucrt:lcidtoname_downlevel.obj
 0002:00004be0       ??_C@_1M@BNFIGBKG@?$AAe?$AAn?$AA?9?$AAg?$AAb?$AA?$AA@ 10036be0     libucrt:lcidtoname_downlevel.obj
 0002:00004bec       ??_C@_1M@LKIFDIGP@?$AAe?$AAn?$AA?9?$AAi?$AAe?$AA?$AA@ 10036bec     libucrt:lcidtoname_downlevel.obj
 0002:00004bf8       ??_C@_1M@PJKFGCCO@?$AAe?$AAn?$AA?9?$AAj?$AAm?$AA?$AA@ 10036bf8     libucrt:lcidtoname_downlevel.obj
 0002:00004c04       ??_C@_1M@KPPKEPBO@?$AAe?$AAn?$AA?9?$AAn?$AAz?$AA?$AA@ 10036c04     libucrt:lcidtoname_downlevel.obj
 0002:00004c10       ??_C@_1M@GMDGLDOB@?$AAe?$AAn?$AA?9?$AAp?$AAh?$AA?$AA@ 10036c10     libucrt:lcidtoname_downlevel.obj
 0002:00004c1c       ??_C@_1M@ONGIBJNA@?$AAe?$AAn?$AA?9?$AAt?$AAt?$AA?$AA@ 10036c1c     libucrt:lcidtoname_downlevel.obj
 0002:00004c28       ??_C@_1M@LLODPCMM@?$AAe?$AAn?$AA?9?$AAu?$AAs?$AA?$AA@ 10036c28     libucrt:lcidtoname_downlevel.obj
 0002:00004c34       ??_C@_1M@LAKFNPAN@?$AAe?$AAn?$AA?9?$AAz?$AAa?$AA?$AA@ 10036c34     libucrt:lcidtoname_downlevel.obj
 0002:00004c40       ??_C@_1M@MFNHNHEO@?$AAe?$AAn?$AA?9?$AAz?$AAw?$AA?$AA@ 10036c40     libucrt:lcidtoname_downlevel.obj
 0002:00004c4c       ??_C@_1M@EJEINPHM@?$AAe?$AAs?$AA?9?$AAa?$AAr?$AA?$AA@ 10036c4c     libucrt:lcidtoname_downlevel.obj
 0002:00004c58       ??_C@_1M@GNKPCCJA@?$AAe?$AAs?$AA?9?$AAb?$AAo?$AA?$AA@ 10036c58     libucrt:lcidtoname_downlevel.obj
 0002:00004c64       ??_C@_1M@LEEGFONL@?$AAe?$AAs?$AA?9?$AAc?$AAl?$AA?$AA@ 10036c64     libucrt:lcidtoname_downlevel.obj
 0002:00004c70       ??_C@_1M@KGPDPBDF@?$AAe?$AAs?$AA?9?$AAc?$AAo?$AA?$AA@ 10036c70     libucrt:lcidtoname_downlevel.obj
 0002:00004c7c       ??_C@_1M@EIAHOHH@?$AAe?$AAs?$AA?9?$AAc?$AAr?$AA?$AA@ 10036c7c     libucrt:lcidtoname_downlevel.obj
 0002:00004c88       ??_C@_1M@LLPGMBIN@?$AAe?$AAs?$AA?9?$AAd?$AAo?$AA?$AA@ 10036c88     libucrt:lcidtoname_downlevel.obj
 0002:00004c94       ??_C@_1M@DKHMKNJA@?$AAe?$AAs?$AA?9?$AAe?$AAc?$AA?$AA@ 10036c94     libucrt:lcidtoname_downlevel.obj
 0002:00004ca0       ??_C@_1M@GKGFPKAP@?$AAe?$AAs?$AA?9?$AAe?$AAs?$AA?$AA@ 10036ca0     libucrt:lcidtoname_downlevel.obj
 0002:00004cac       ??_C@_1M@LKHKGDLN@?$AAe?$AAs?$AA?9?$AAg?$AAt?$AA?$AA@ 10036cac     libucrt:lcidtoname_downlevel.obj
 0002:00004cb8       ??_C@_1M@HEIIGGJD@?$AAe?$AAs?$AA?9?$AAh?$AAn?$AA?$AA@ 10036cb8     libucrt:lcidtoname_downlevel.obj
 0002:00004cc4       ??_C@_1M@FBDHPPGD@?$AAe?$AAs?$AA?9?$AAm?$AAx?$AA?$AA@ 10036cc4     libucrt:lcidtoname_downlevel.obj
 0002:00004cd0       ??_C@_1M@DPAGLNDH@?$AAe?$AAs?$AA?9?$AAn?$AAi?$AA?$AA@ 10036cd0     libucrt:lcidtoname_downlevel.obj
 0002:00004cdc       ??_C@_1M@MDGOPGDD@?$AAe?$AAs?$AA?9?$AAp?$AAa?$AA?$AA@ 10036cdc     libucrt:lcidtoname_downlevel.obj
 0002:00004ce8       ??_C@_1M@EMAMGBGE@?$AAe?$AAs?$AA?9?$AAp?$AAe?$AA?$AA@ 10036ce8     libucrt:lcidtoname_downlevel.obj
 0002:00004cf4       ??_C@_1M@IBMCAOEC@?$AAe?$AAs?$AA?9?$AAp?$AAr?$AA?$AA@ 10036cf4     libucrt:lcidtoname_downlevel.obj
 0002:00004d00       ??_C@_1M@FGMDIJED@?$AAe?$AAs?$AA?9?$AAp?$AAy?$AA?$AA@ 10036d00     libucrt:lcidtoname_downlevel.obj
 0002:00004d0c       ??_C@_1M@IIDEOLLL@?$AAe?$AAs?$AA?9?$AAs?$AAv?$AA?$AA@ 10036d0c     libucrt:lcidtoname_downlevel.obj
 0002:00004d18       ??_C@_1M@GAOBIPA@?$AAe?$AAs?$AA?9?$AAu?$AAy?$AA?$AA@ 10036d18     libucrt:lcidtoname_downlevel.obj
 0002:00004d24       ??_C@_1M@JKFFICHJ@?$AAe?$AAs?$AA?9?$AAv?$AAe?$AA?$AA@ 10036d24     libucrt:lcidtoname_downlevel.obj
 0002:00004d30       ??_C@_1M@PNMLOJDF@?$AAe?$AAt?$AA?9?$AAe?$AAe?$AA?$AA@ 10036d30     libucrt:lcidtoname_downlevel.obj
 0002:00004d3c       ??_C@_1M@GHHLIKEI@?$AAe?$AAu?$AA?9?$AAe?$AAs?$AA?$AA@ 10036d3c     libucrt:lcidtoname_downlevel.obj
 0002:00004d48       ??_C@_1M@PBNONODE@?$AAf?$AAa?$AA?9?$AAi?$AAr?$AA?$AA@ 10036d48     libucrt:lcidtoname_downlevel.obj
 0002:00004d54       ??_C@_1M@JEEHPMIL@?$AAf?$AAi?$AA?9?$AAf?$AAi?$AA?$AA@ 10036d54     libucrt:lcidtoname_downlevel.obj
 0002:00004d60       ??_C@_1M@LMDCNDBA@?$AAf?$AAo?$AA?9?$AAf?$AAo?$AA?$AA@ 10036d60     libucrt:lcidtoname_downlevel.obj
 0002:00004d6c       ??_C@_1M@JKEOHLDK@?$AAf?$AAr?$AA?9?$AAb?$AAe?$AA?$AA@ 10036d6c     libucrt:lcidtoname_downlevel.obj
 0002:00004d78       ??_C@_1M@NOHADPMI@?$AAf?$AAr?$AA?9?$AAc?$AAa?$AA?$AA@ 10036d78     libucrt:lcidtoname_downlevel.obj
 0002:00004d84       ??_C@_1M@KDHIHAEC@?$AAf?$AAr?$AA?9?$AAc?$AAh?$AA?$AA@ 10036d84     libucrt:lcidtoname_downlevel.obj
 0002:00004d90       ??_C@_1M@MMBBFGAK@?$AAf?$AAr?$AA?9?$AAf?$AAr?$AA?$AA@ 10036d90     libucrt:lcidtoname_downlevel.obj
 0002:00004d9c       ??_C@_1M@PAFNENNF@?$AAf?$AAr?$AA?9?$AAl?$AAu?$AA?$AA@ 10036d9c     libucrt:lcidtoname_downlevel.obj
 0002:00004da8       ??_C@_1M@EOHDJGDD@?$AAf?$AAr?$AA?9?$AAm?$AAc?$AA?$AA@ 10036da8     libucrt:lcidtoname_downlevel.obj
 0002:00004db4       ??_C@_1M@FAPLLOPF@?$AAg?$AAl?$AA?9?$AAe?$AAs?$AA?$AA@ 10036db4     libucrt:lcidtoname_downlevel.obj
 0002:00004dc0       ??_C@_1M@FOPBFLOO@?$AAg?$AAu?$AA?9?$AAi?$AAn?$AA?$AA@ 10036dc0     libucrt:lcidtoname_downlevel.obj
 0002:00004dcc       ??_C@_1M@KBMCINPM@?$AAh?$AAe?$AA?9?$AAi?$AAl?$AA?$AA@ 10036dcc     libucrt:lcidtoname_downlevel.obj
 0002:00004dd8       ??_C@_1M@BBPHKFPJ@?$AAh?$AAi?$AA?9?$AAi?$AAn?$AA?$AA@ 10036dd8     libucrt:lcidtoname_downlevel.obj
 0002:00004de4       ??_C@_1M@PMBNDPHD@?$AAh?$AAr?$AA?9?$AAb?$AAa?$AA?$AA@ 10036de4     libucrt:lcidtoname_downlevel.obj
 0002:00004df0       ??_C@_1M@BPCKOEGE@?$AAh?$AAr?$AA?9?$AAh?$AAr?$AA?$AA@ 10036df0     libucrt:lcidtoname_downlevel.obj
 0002:00004dfc       ??_C@_1M@GACBMHKE@?$AAh?$AAu?$AA?9?$AAh?$AAu?$AA?$AA@ 10036dfc     libucrt:lcidtoname_downlevel.obj
 0002:00004e08       ??_C@_1M@MILPAJJC@?$AAh?$AAy?$AA?9?$AAa?$AAm?$AA?$AA@ 10036e08     libucrt:lcidtoname_downlevel.obj
 0002:00004e14       ??_C@_1M@BABBICEC@?$AAi?$AAd?$AA?9?$AAi?$AAd?$AA?$AA@ 10036e14     libucrt:lcidtoname_downlevel.obj
 0002:00004e20       ??_C@_1M@BIKNHHPF@?$AAi?$AAs?$AA?9?$AAi?$AAs?$AA?$AA@ 10036e20     libucrt:lcidtoname_downlevel.obj
 0002:00004e2c       ??_C@_1M@NMPCJPHE@?$AAi?$AAt?$AA?9?$AAc?$AAh?$AA?$AA@ 10036e2c     libucrt:lcidtoname_downlevel.obj
 0002:00004e38       ??_C@_1M@GHKGFEDF@?$AAi?$AAt?$AA?9?$AAi?$AAt?$AA?$AA@ 10036e38     libucrt:lcidtoname_downlevel.obj
 0002:00004e44       ??_C@_1M@NIEJCJJA@?$AAj?$AAa?$AA?9?$AAj?$AAp?$AA?$AA@ 10036e44     libucrt:lcidtoname_downlevel.obj
 0002:00004e50       ??_C@_1M@JILFNBIM@?$AAk?$AAa?$AA?9?$AAg?$AAe?$AA?$AA@ 10036e50     libucrt:lcidtoname_downlevel.obj
 0002:00004e5c       ??_C@_1M@PACPMGPH@?$AAk?$AAk?$AA?9?$AAk?$AAz?$AA?$AA@ 10036e5c     libucrt:lcidtoname_downlevel.obj
 0002:00004e68       ??_C@_1M@IELFGMHA@?$AAk?$AAn?$AA?9?$AAi?$AAn?$AA?$AA@ 10036e68     libucrt:lcidtoname_downlevel.obj
 0002:00004e74       ??_C@_1O@IBBJHCH@?$AAk?$AAo?$AAk?$AA?9?$AAi?$AAn?$AA?$AA@ 10036e74     libucrt:lcidtoname_downlevel.obj
 0002:00004e84       ??_C@_1M@DMHAEOGC@?$AAk?$AAo?$AA?9?$AAk?$AAr?$AA?$AA@ 10036e84     libucrt:lcidtoname_downlevel.obj
 0002:00004e90       ??_C@_1M@HBAHBIGA@?$AAk?$AAy?$AA?9?$AAk?$AAg?$AA?$AA@ 10036e90     libucrt:lcidtoname_downlevel.obj
 0002:00004e9c       ??_C@_1M@KPMILCJG@?$AAl?$AAt?$AA?9?$AAl?$AAt?$AA?$AA@ 10036e9c     libucrt:lcidtoname_downlevel.obj
 0002:00004ea8       ??_C@_1M@BDEKKCA@?$AAl?$AAv?$AA?9?$AAl?$AAv?$AA?$AA@ 10036ea8     libucrt:lcidtoname_downlevel.obj
 0002:00004eb4       ??_C@_1M@ELCKCCJJ@?$AAm?$AAi?$AA?9?$AAn?$AAz?$AA?$AA@ 10036eb4     libucrt:lcidtoname_downlevel.obj
 0002:00004ec0       ??_C@_1M@CBOOLAPA@?$AAm?$AAk?$AA?9?$AAm?$AAk?$AA?$AA@ 10036ec0     libucrt:lcidtoname_downlevel.obj
 0002:00004ecc       ??_C@_1M@GPHNBJKN@?$AAm?$AAl?$AA?9?$AAi?$AAn?$AA?$AA@ 10036ecc     libucrt:lcidtoname_downlevel.obj
 0002:00004ed8       ??_C@_1M@PABJILIG@?$AAm?$AAn?$AA?9?$AAm?$AAn?$AA?$AA@ 10036ed8     libucrt:lcidtoname_downlevel.obj
 0002:00004ee4       ??_C@_1M@FGBKKIPG@?$AAm?$AAr?$AA?9?$AAi?$AAn?$AA?$AA@ 10036ee4     libucrt:lcidtoname_downlevel.obj
 0002:00004ef0       ??_C@_1M@NDBPDDAL@?$AAm?$AAs?$AA?9?$AAb?$AAn?$AA?$AA@ 10036ef0     libucrt:lcidtoname_downlevel.obj
 0002:00004efc       ??_C@_1M@OPIHOOPI@?$AAm?$AAs?$AA?9?$AAm?$AAy?$AA?$AA@ 10036efc     libucrt:lcidtoname_downlevel.obj
 0002:00004f08       ??_C@_1M@PPDBCNFM@?$AAm?$AAt?$AA?9?$AAm?$AAt?$AA?$AA@ 10036f08     libucrt:lcidtoname_downlevel.obj
 0002:00004f14       ??_C@_1M@KDJDKMDD@?$AAn?$AAb?$AA?9?$AAn?$AAo?$AA?$AA@ 10036f14     libucrt:lcidtoname_downlevel.obj
 0002:00004f20       ??_C@_1M@KFCFLMJP@?$AAn?$AAl?$AA?9?$AAb?$AAe?$AA?$AA@ 10036f20     libucrt:lcidtoname_downlevel.obj
 0002:00004f2c       ??_C@_1M@KPOPDDGO@?$AAn?$AAl?$AA?9?$AAn?$AAl?$AA?$AA@ 10036f2c     libucrt:lcidtoname_downlevel.obj
 0002:00004f38       ??_C@_1M@LJKPEMLN@?$AAn?$AAn?$AA?9?$AAn?$AAo?$AA?$AA@ 10036f38     libucrt:lcidtoname_downlevel.obj
 0002:00004f44       ??_C@_1M@BDGHHBFL@?$AAn?$AAs?$AA?9?$AAz?$AAa?$AA?$AA@ 10036f44     libucrt:lcidtoname_downlevel.obj
 0002:00004f50       ??_C@_1M@IDEHOAP@?$AAp?$AAa?$AA?9?$AAi?$AAn?$AA?$AA@ 10036f50     libucrt:lcidtoname_downlevel.obj
 0002:00004f5c       ??_C@_1M@HDBKGOGH@?$AAp?$AAl?$AA?9?$AAp?$AAl?$AA?$AA@ 10036f5c     libucrt:lcidtoname_downlevel.obj
 0002:00004f68       ??_C@_1M@LJLLCMEH@?$AAp?$AAt?$AA?9?$AAb?$AAr?$AA?$AA@ 10036f68     libucrt:lcidtoname_downlevel.obj
 0002:00004f74       ??_C@_1M@NCMONAAL@?$AAp?$AAt?$AA?9?$AAp?$AAt?$AA?$AA@ 10036f74     libucrt:lcidtoname_downlevel.obj
 0002:00004f80       ??_C@_1O@EAKMAJDN@?$AAq?$AAu?$AAz?$AA?9?$AAb?$AAo?$AA?$AA@ 10036f80     libucrt:lcidtoname_downlevel.obj
 0002:00004f90       ??_C@_1O@BHHPIGDN@?$AAq?$AAu?$AAz?$AA?9?$AAe?$AAc?$AA?$AA@ 10036f90     libucrt:lcidtoname_downlevel.obj
 0002:00004fa0       ??_C@_1O@GBAPEKMJ@?$AAq?$AAu?$AAz?$AA?9?$AAp?$AAe?$AA?$AA@ 10036fa0     libucrt:lcidtoname_downlevel.obj
 0002:00004fb0       ??_C@_1M@CLGLEFBO@?$AAr?$AAo?$AA?9?$AAr?$AAo?$AA?$AA@ 10036fb0     libucrt:lcidtoname_downlevel.obj
 0002:00004fbc       ??_C@_1M@CEEDODME@?$AAr?$AAu?$AA?9?$AAr?$AAu?$AA?$AA@ 10036fbc     libucrt:lcidtoname_downlevel.obj
 0002:00004fc8       ??_C@_1M@HPKKKMPP@?$AAs?$AAa?$AA?9?$AAi?$AAn?$AA?$AA@ 10036fc8     libucrt:lcidtoname_downlevel.obj
 0002:00004fd4       ??_C@_1M@BKMAIGOJ@?$AAs?$AAe?$AA?9?$AAf?$AAi?$AA?$AA@ 10036fd4     libucrt:lcidtoname_downlevel.obj
 0002:00004fe0       ??_C@_1M@NDPIFLFI@?$AAs?$AAe?$AA?9?$AAn?$AAo?$AA?$AA@ 10036fe0     libucrt:lcidtoname_downlevel.obj
 0002:00004fec       ??_C@_1M@DANKKHJ@?$AAs?$AAe?$AA?9?$AAs?$AAe?$AA?$AA@ 10036fec     libucrt:lcidtoname_downlevel.obj
 0002:00004ff8       ??_C@_1M@PNBLONPJ@?$AAs?$AAk?$AA?9?$AAs?$AAk?$AA?$AA@ 10036ff8     libucrt:lcidtoname_downlevel.obj
 0002:00005004       ??_C@_1M@LFMODOAL@?$AAs?$AAl?$AA?9?$AAs?$AAi?$AA?$AA@ 10037004     libucrt:lcidtoname_downlevel.obj
 0002:00005010       ??_C@_1O@DFKOMPG@?$AAs?$AAm?$AAa?$AA?9?$AAn?$AAo?$AA?$AA@ 10037010     libucrt:lcidtoname_downlevel.obj
 0002:00005020       ??_C@_1O@NDKPBNNH@?$AAs?$AAm?$AAa?$AA?9?$AAs?$AAe?$AA?$AA@ 10037020     libucrt:lcidtoname_downlevel.obj
 0002:00005030       ??_C@_1O@PLLKBHAB@?$AAs?$AAm?$AAj?$AA?9?$AAn?$AAo?$AA?$AA@ 10037030     libucrt:lcidtoname_downlevel.obj
 0002:00005040       ??_C@_1O@CLEPOGCA@?$AAs?$AAm?$AAj?$AA?9?$AAs?$AAe?$AA?$AA@ 10037040     libucrt:lcidtoname_downlevel.obj
 0002:00005050       ??_C@_1O@DLGJGKMK@?$AAs?$AAm?$AAn?$AA?9?$AAf?$AAi?$AA?$AA@ 10037050     libucrt:lcidtoname_downlevel.obj
 0002:00005060       ??_C@_1O@OJDJGAJC@?$AAs?$AAm?$AAs?$AA?9?$AAf?$AAi?$AA?$AA@ 10037060     libucrt:lcidtoname_downlevel.obj
 0002:00005070       ??_C@_1M@BOFOGHPB@?$AAs?$AAq?$AA?9?$AAa?$AAl?$AA?$AA@ 10037070     libucrt:lcidtoname_downlevel.obj
 0002:0000507c       ??_C@_1BG@LJBBIPGB@?$AAs?$AAr?$AA?9?$AAb?$AAa?$AA?9?$AAc?$AAy?$AAr?$AAl?$AA?$AA@ 1003707c     libucrt:lcidtoname_downlevel.obj
 0002:00005094       ??_C@_1BG@JLBENFOE@?$AAs?$AAr?$AA?9?$AAb?$AAa?$AA?9?$AAl?$AAa?$AAt?$AAn?$AA?$AA@ 10037094     libucrt:lcidtoname_downlevel.obj
 0002:000050ac       ??_C@_1BG@KODPNHE@?$AAs?$AAr?$AA?9?$AAs?$AAp?$AA?9?$AAc?$AAy?$AAr?$AAl?$AA?$AA@ 100370ac     libucrt:lcidtoname_downlevel.obj
 0002:000050c4       ??_C@_1BG@CIOGKHPB@?$AAs?$AAr?$AA?9?$AAs?$AAp?$AA?9?$AAl?$AAa?$AAt?$AAn?$AA?$AA@ 100370c4     libucrt:lcidtoname_downlevel.obj
 0002:000050dc       ??_C@_1M@NGFJLMAC@?$AAs?$AAv?$AA?9?$AAf?$AAi?$AA?$AA@ 100370dc     libucrt:lcidtoname_downlevel.obj
 0002:000050e8       ??_C@_1M@MPJEJAJC@?$AAs?$AAv?$AA?9?$AAs?$AAe?$AA?$AA@ 100370e8     libucrt:lcidtoname_downlevel.obj
 0002:000050f4       ??_C@_1M@MPNDHLFK@?$AAs?$AAw?$AA?9?$AAk?$AAe?$AA?$AA@ 100370f4     libucrt:lcidtoname_downlevel.obj
 0002:00005100       ??_C@_1O@KOHBJJI@?$AAs?$AAy?$AAr?$AA?9?$AAs?$AAy?$AA?$AA@ 10037100     libucrt:lcidtoname_downlevel.obj
 0002:00005110       ??_C@_1M@LDCEFHA@?$AAt?$AAa?$AA?9?$AAi?$AAn?$AA?$AA@ 10037110     libucrt:lcidtoname_downlevel.obj
 0002:0000511c       ??_C@_1M@CNJOFAK@?$AAt?$AAe?$AA?9?$AAi?$AAn?$AA?$AA@ 1003711c     libucrt:lcidtoname_downlevel.obj
 0002:00005128       ??_C@_1M@GNAECACD@?$AAt?$AAh?$AA?9?$AAt?$AAh?$AA?$AA@ 10037128     libucrt:lcidtoname_downlevel.obj
 0002:00005134       ??_C@_1M@CHBIHOJO@?$AAt?$AAn?$AA?9?$AAz?$AAa?$AA?$AA@ 10037134     libucrt:lcidtoname_downlevel.obj
 0002:00005140       ??_C@_1M@GCCMIGPJ@?$AAt?$AAr?$AA?9?$AAt?$AAr?$AA?$AA@ 10037140     libucrt:lcidtoname_downlevel.obj
 0002:0000514c       ??_C@_1M@CELMCNBK@?$AAt?$AAt?$AA?9?$AAr?$AAu?$AA?$AA@ 1003714c     libucrt:lcidtoname_downlevel.obj
 0002:00005158       ??_C@_1M@KLMCELGA@?$AAu?$AAk?$AA?9?$AAu?$AAa?$AA?$AA@ 10037158     libucrt:lcidtoname_downlevel.obj
 0002:00005164       ??_C@_1M@EPAJJAJF@?$AAu?$AAr?$AA?9?$AAp?$AAk?$AA?$AA@ 10037164     libucrt:lcidtoname_downlevel.obj
 0002:00005170       ??_C@_1BG@GEGPMCDJ@?$AAu?$AAz?$AA?9?$AAu?$AAz?$AA?9?$AAc?$AAy?$AAr?$AAl?$AA?$AA@ 10037170     libucrt:lcidtoname_downlevel.obj
 0002:00005188       ??_C@_1BG@EGGKJILM@?$AAu?$AAz?$AA?9?$AAu?$AAz?$AA?9?$AAl?$AAa?$AAt?$AAn?$AA?$AA@ 10037188     libucrt:lcidtoname_downlevel.obj
 0002:000051a0       ??_C@_1M@GFOCLFF@?$AAv?$AAi?$AA?9?$AAv?$AAn?$AA?$AA@ 100371a0     libucrt:lcidtoname_downlevel.obj
 0002:000051ac       ??_C@_1M@CPAMEDFI@?$AAx?$AAh?$AA?9?$AAz?$AAa?$AA?$AA@ 100371ac     libucrt:lcidtoname_downlevel.obj
 0002:000051b8       ??_C@_1O@EBKIFIGN@?$AAz?$AAh?$AA?9?$AAc?$AAh?$AAs?$AA?$AA@ 100371b8     libucrt:lcidtoname_downlevel.obj
 0002:000051c8       ??_C@_1O@NMHPGANE@?$AAz?$AAh?$AA?9?$AAc?$AAh?$AAt?$AA?$AA@ 100371c8     libucrt:lcidtoname_downlevel.obj
 0002:000051d8       ??_C@_1M@LPINJOMC@?$AAz?$AAh?$AA?9?$AAc?$AAn?$AA?$AA@ 100371d8     libucrt:lcidtoname_downlevel.obj
 0002:000051e4       ??_C@_1M@OCJEJODD@?$AAz?$AAh?$AA?9?$AAh?$AAk?$AA?$AA@ 100371e4     libucrt:lcidtoname_downlevel.obj
 0002:000051f0       ??_C@_1M@DNDLJINH@?$AAz?$AAh?$AA?9?$AAm?$AAo?$AA?$AA@ 100371f0     libucrt:lcidtoname_downlevel.obj
 0002:000051fc       ??_C@_1M@MBFDNDND@?$AAz?$AAh?$AA?9?$AAs?$AAg?$AA?$AA@ 100371fc     libucrt:lcidtoname_downlevel.obj
 0002:00005208       ??_C@_1M@IMEPLEPE@?$AAz?$AAh?$AA?9?$AAt?$AAw?$AA?$AA@ 10037208     libucrt:lcidtoname_downlevel.obj
 0002:00005214       ??_C@_1M@BBGHNHJP@?$AAz?$AAu?$AA?9?$AAz?$AAa?$AA?$AA@ 10037214     libucrt:lcidtoname_downlevel.obj
 0002:00005220       ??_C@_01GBGANLPD@0?$AA@    10037220     libucrt:cfout.obj
 0002:00005224       ??_C@_05DNEBIAHO@1?$CDINF?$AA@ 10037224     libucrt:cfout.obj
 0002:0000522c       ??_C@_06IMKFLFPG@1?$CDQNAN?$AA@ 1003722c     libucrt:cfout.obj
 0002:00005234       ??_C@_06PGGFOGJG@1?$CDSNAN?$AA@ 10037234     libucrt:cfout.obj
 0002:0000523c       ??_C@_05PHHOCPM@1?$CDIND?$AA@ 1003723c     libucrt:cfout.obj
 0002:000052a8       ??_C@_1BA@BALFACEM@?$AAC?$AAO?$AAN?$AAO?$AAU?$AAT?$AA$?$AA?$AA@ 100372a8     libucrt:initcon.obj
 0002:000053c0       __infinity                 100373c0     libucrt:87tran.obj
 0002:000053ca       __minfinity                100373ca     libucrt:87tran.obj
 0002:000053d4       __logemax                  100373d4     libucrt:87tran.obj
 0002:000053fa       __OP_EXPjmptab             100373fa     libucrt:87tran.obj
 0002:00005420       __indefinite               10037420     libucrt:87disp.obj
 0002:0000542a       __piby2                    1003742a     libucrt:87disp.obj
 0002:00005434       __piby4                    10037434     libucrt:87disp.obj
 0002:00005468       __DEFAULT_CW_in_mem        10037468     libucrt:common.obj
 0002:0000546a       __pi_by_2_to_61            1003746a     libucrt:common.obj
 0002:000054a4       ??_C@_03MGHMBJCF@log?$AA@  100374a4     libucrt:libm_error.obj
 0002:000054a8       ??_C@_05HGHHAHAP@log10?$AA@ 100374a8     libucrt:libm_error.obj
 0002:000054b0       ??_C@_03KHJOGHMM@exp?$AA@  100374b0     libucrt:libm_error.obj
 0002:000054b4       ??_C@_03JGHBODFD@pow?$AA@  100374b4     libucrt:libm_error.obj
 0002:000054b8       ??_C@_04FIHNOPOL@asin?$AA@ 100374b8     libucrt:libm_error.obj
 0002:000054c0       ??_C@_04PDIFKINK@acos?$AA@ 100374c0     libucrt:libm_error.obj
 0002:000054c8       ??_C@_04EIAKFFMI@sqrt?$AA@ 100374c8     libucrt:libm_error.obj
 0002:000054f0       ___acrt_log10_table_t      100374f0     libucrt:log10_tables.obj
 0002:00005900       ___acrt_log10_table_cb     10037900     libucrt:log10_tables.obj
 0002:00005d10       __real@3fe0000000000000    10037d10     libucrt:powhlp.obj
 0002:00005d18       ??_C@_04FJHINJAO@tanh?$AA@ 10037d18     libucrt:fpexcept.obj
 0002:00005d20       ??_C@_04MLLJIGOK@atan?$AA@ 10037d20     libucrt:fpexcept.obj
 0002:00005d28       ??_C@_05KNGEOGJB@atan2?$AA@ 10037d28     libucrt:fpexcept.obj
 0002:00005d30       ??_C@_03BLEJJJBH@sin?$AA@  10037d30     libucrt:fpexcept.obj
 0002:00005d34       ??_C@_03LALBNOCG@cos?$AA@  10037d34     libucrt:fpexcept.obj
 0002:00005d38       ??_C@_03IIINPABG@tan?$AA@  10037d38     libucrt:fpexcept.obj
 0002:00005d3c       ??_C@_04GFPJNGEK@ceil?$AA@ 10037d3c     libucrt:fpexcept.obj
 0002:00005d44       ??_C@_05PBJFFIGL@floor?$AA@ 10037d44     libucrt:fpexcept.obj
 0002:00005d4c       ??_C@_04ODHECPBC@fabs?$AA@ 10037d4c     libucrt:fpexcept.obj
 0002:00005d54       ??_C@_04EHEDPDJG@modf?$AA@ 10037d54     libucrt:fpexcept.obj
 0002:00005d5c       ??_C@_05CEJMAHNP@ldexp?$AA@ 10037d5c     libucrt:fpexcept.obj
 0002:00005d64       ??_C@_05KBKMEMPO@_cabs?$AA@ 10037d64     libucrt:fpexcept.obj
 0002:00005d6c       ??_C@_06MEIMCGCF@_hypot?$AA@ 10037d6c     libucrt:fpexcept.obj
 0002:00005d74       ??_C@_04KEPJIHGP@fmod?$AA@ 10037d74     libucrt:fpexcept.obj
 0002:00005d7c       ??_C@_05GKKHEGJL@frexp?$AA@ 10037d7c     libucrt:fpexcept.obj
 0002:00005d84       ??_C@_03MJLDFKDL@_y0?$AA@  10037d84     libucrt:fpexcept.obj
 0002:00005d88       ??_C@_03NAKIGLHK@_y1?$AA@  10037d88     libucrt:fpexcept.obj
 0002:00005d8c       ??_C@_03ONILCKOB@_yn?$AA@  10037d8c     libucrt:fpexcept.obj
 0002:00005d90       ??_C@_05JGDBENOH@_logb?$AA@ 10037d90     libucrt:fpexcept.obj
 0002:00005d98       ??_C@_0L@KDOEJCKC@_nextafter?$AA@ 10037d98     libucrt:fpexcept.obj
 0002:00005e90       ??_C@_04COOMCNPB@sinh?$AA@ 10037e90     libucrt:fpexcept.obj
 0002:00005e98       ??_C@_04HPJJNFIM@cosh?$AA@ 10037e98     libucrt:fpexcept.obj
 0002:00005ea0       __d_inf                    10037ea0     libucrt:util.obj
 0002:00005ea8       __d_max                    10037ea8     libucrt:util.obj
 0002:00005eb0       __d_mzero                  10037eb0     libucrt:util.obj
 0002:00005eb8       ??_C@_0L@EAMHLKCC@INIT_ERROR?$AA@ 10037eb8     node_usb.obj
 0002:00005ec4       ??_C@_0O@OFPJMCIO@setDebugLevel?$AA@ 10037ec4     node_usb.obj
 0002:00005ed4       ??_C@_0O@MKCIHLCK@getDeviceList?$AA@ 10037ed4     node_usb.obj
 0002:00005ee4       ??_C@_0BF@MJELLJBE@_enableHotplugEvents?$AA@ 10037ee4     node_usb.obj
 0002:00005efc       ??_C@_0BG@OKNKJGMG@_disableHotplugEvents?$AA@ 10037efc     node_usb.obj
 0002:00005f14       ??_C@_0BD@ODJLENGA@?4?4?2src?2node_usb?4cc?$AA@ 10037f14     node_usb.obj
 0002:00005f28       ??_C@_0N@LHKPNNAI@usb_bindings?$AA@ 10037f28     node_usb.obj
 0002:00005f38       ??_C@_0DG@HBKGDCHK@Usb?3?3SetDebugLevel?5argument?5is?5i@ 10037f38     node_usb.obj
 0002:00005f70       ??_C@_06LHJMGKLI@attach?$AA@ 10037f70     node_usb.obj
 0002:00005f78       ??_C@_06CNCOJECB@detach?$AA@ 10037f78     node_usb.obj
 0002:00005f80       ??_C@_04KNBGJDFM@emit?$AA@ 10037f80     node_usb.obj
 0002:00005f88       ??_C@_0BL@GIEFMHAE@LIBUSB_CLASS_PER_INTERFACE?$AA@ 10037f88     node_usb.obj
 0002:00005fa4       ??_C@_0BD@GHBMDMKD@LIBUSB_CLASS_AUDIO?$AA@ 10037fa4     node_usb.obj
 0002:00005fb8       ??_C@_0BC@JMMCJIK@LIBUSB_CLASS_COMM?$AA@ 10037fb8     node_usb.obj
 0002:00005fcc       ??_C@_0BB@HAEGNMNL@LIBUSB_CLASS_HID?$AA@ 10037fcc     node_usb.obj
 0002:00005fe0       ??_C@_0BF@KIIJJECH@LIBUSB_CLASS_PRINTER?$AA@ 10037fe0     node_usb.obj
 0002:00005ff8       ??_C@_0BB@NPLLEENN@LIBUSB_CLASS_PTP?$AA@ 10037ff8     node_usb.obj
 0002:0000600c       ??_C@_0BK@ODKCFELC@LIBUSB_CLASS_MASS_STORAGE?$AA@ 1003800c     node_usb.obj
 0002:00006028       ??_C@_0BB@DDCACBEJ@LIBUSB_CLASS_HUB?$AA@ 10038028     node_usb.obj
 0002:0000603c       ??_C@_0BC@OEHBFFFK@LIBUSB_CLASS_DATA?$AA@ 1003803c     node_usb.obj
 0002:00006050       ??_C@_0BG@CPMIPMFP@LIBUSB_CLASS_WIRELESS?$AA@ 10038050     node_usb.obj
 0002:00006068       ??_C@_0BJ@PALAKCLK@LIBUSB_CLASS_APPLICATION?$AA@ 10038068     node_usb.obj
 0002:00006084       ??_C@_0BJ@MMDMBPIL@LIBUSB_CLASS_VENDOR_SPEC?$AA@ 10038084     node_usb.obj
 0002:000060a0       ??_C@_0BK@PHJMGEA@LIBUSB_REQUEST_GET_STATUS?$AA@ 100380a0     node_usb.obj
 0002:000060bc       ??_C@_0BN@KDJOLGCB@LIBUSB_REQUEST_CLEAR_FEATURE?$AA@ 100380bc     node_usb.obj
 0002:000060dc       ??_C@_0BL@PDJHJH@LIBUSB_REQUEST_SET_FEATURE?$AA@ 100380dc     node_usb.obj
 0002:000060f8       ??_C@_0BL@DOIPHJFG@LIBUSB_REQUEST_SET_ADDRESS?$AA@ 100380f8     node_usb.obj
 0002:00006114       ??_C@_0BO@DDEALJNM@LIBUSB_REQUEST_GET_DESCRIPTOR?$AA@ 10038114     node_usb.obj
 0002:00006134       ??_C@_0BO@PNFOEDPA@LIBUSB_REQUEST_SET_DESCRIPTOR?$AA@ 10038134     node_usb.obj
 0002:00006154       ??_C@_0CB@BOMKFHC@LIBUSB_REQUEST_GET_CONFIGURATION@ 10038154     node_usb.obj
 0002:00006178       ??_C@_0CB@CEOHCOGM@LIBUSB_REQUEST_SET_CONFIGURATION@ 10038178     node_usb.obj
 0002:0000619c       ??_C@_0BN@FBAMNKKP@LIBUSB_REQUEST_GET_INTERFACE?$AA@ 1003819c     node_usb.obj
 0002:000061bc       ??_C@_0BN@COBCGJNI@LIBUSB_REQUEST_SET_INTERFACE?$AA@ 100381bc     node_usb.obj
 0002:000061dc       ??_C@_0BL@FCAHFBPA@LIBUSB_REQUEST_SYNCH_FRAME?$AA@ 100381dc     node_usb.obj
 0002:000061f8       ??_C@_0BB@DKGFPGJH@LIBUSB_DT_DEVICE?$AA@ 100381f8     node_usb.obj
 0002:0000620c       ??_C@_0BB@GJALMADO@LIBUSB_DT_CONFIG?$AA@ 1003820c     node_usb.obj
 0002:00006220       ??_C@_0BB@JPPINCPI@LIBUSB_DT_STRING?$AA@ 10038220     node_usb.obj
 0002:00006234       ??_C@_0BE@CGBMBJKI@LIBUSB_DT_INTERFACE?$AA@ 10038234     node_usb.obj
 0002:00006248       ??_C@_0BD@NPKCMNBD@LIBUSB_DT_ENDPOINT?$AA@ 10038248     node_usb.obj
 0002:0000625c       ??_C@_0O@KMAGNLAD@LIBUSB_DT_HID?$AA@ 1003825c     node_usb.obj
 0002:0000626c       ??_C@_0BB@NKHNBPEI@LIBUSB_DT_REPORT?$AA@ 1003826c     node_usb.obj
 0002:00006280       ??_C@_0BD@BGLNIGKK@LIBUSB_DT_PHYSICAL?$AA@ 10038280     node_usb.obj
 0002:00006294       ??_C@_0O@OPGACGJB@LIBUSB_DT_HUB?$AA@ 10038294     node_usb.obj
 0002:000062a4       ??_C@_0BD@HCMGCACJ@LIBUSB_ENDPOINT_IN?$AA@ 100382a4     node_usb.obj
 0002:000062b8       ??_C@_0BE@KJAPNFFB@LIBUSB_ENDPOINT_OUT?$AA@ 100382b8     node_usb.obj
 0002:000062cc       ??_C@_0BN@JJAIJCEE@LIBUSB_TRANSFER_TYPE_CONTROL?$AA@ 100382cc     node_usb.obj
 0002:000062ec       ??_C@_0CB@HAOABGDL@LIBUSB_TRANSFER_TYPE_ISOCHRONOUS@ 100382ec     node_usb.obj
 0002:00006310       ??_C@_0BK@HBDNAOPL@LIBUSB_TRANSFER_TYPE_BULK?$AA@ 10038310     node_usb.obj
 0002:0000632c       ??_C@_0BP@KBJFCCLE@LIBUSB_TRANSFER_TYPE_INTERRUPT?$AA@ 1003832c     node_usb.obj
 0002:0000634c       ??_C@_0BK@JEGMHBAG@LIBUSB_ISO_SYNC_TYPE_NONE?$AA@ 1003834c     node_usb.obj
 0002:00006368       ??_C@_0BL@KHHOJNBD@LIBUSB_ISO_SYNC_TYPE_ASYNC?$AA@ 10038368     node_usb.obj
 0002:00006384       ??_C@_0BO@KHECIJPF@LIBUSB_ISO_SYNC_TYPE_ADAPTIVE?$AA@ 10038384     node_usb.obj
 0002:000063a4       ??_C@_0BK@CPDEINPA@LIBUSB_ISO_SYNC_TYPE_SYNC?$AA@ 100383a4     node_usb.obj
 0002:000063c0       ??_C@_0BL@DDFNAHFB@LIBUSB_ISO_USAGE_TYPE_DATA?$AA@ 100383c0     node_usb.obj
 0002:000063dc       ??_C@_0BP@JNCJINNO@LIBUSB_ISO_USAGE_TYPE_FEEDBACK?$AA@ 100383dc     node_usb.obj
 0002:000063fc       ??_C@_0BP@FFNEBKGM@LIBUSB_ISO_USAGE_TYPE_IMPLICIT?$AA@ 100383fc     node_usb.obj
 0002:0000641c       ??_C@_0BK@LOFKNEAC@LIBUSB_TRANSFER_COMPLETED?$AA@ 1003841c     node_usb.obj
 0002:00006438       ??_C@_0BG@MIIHEIAM@LIBUSB_TRANSFER_ERROR?$AA@ 10038438     node_usb.obj
 0002:00006450       ??_C@_0BK@CKCLOIIB@LIBUSB_TRANSFER_TIMED_OUT?$AA@ 10038450     node_usb.obj
 0002:0000646c       ??_C@_0BK@BBJDMCOJ@LIBUSB_TRANSFER_CANCELLED?$AA@ 1003846c     node_usb.obj
 0002:00006488       ??_C@_0BG@GODCFNN@LIBUSB_TRANSFER_STALL?$AA@ 10038488     node_usb.obj
 0002:000064a0       ??_C@_0BK@FJABKPBC@LIBUSB_TRANSFER_NO_DEVICE?$AA@ 100384a0     node_usb.obj
 0002:000064bc       ??_C@_0BJ@IEKNMKOK@LIBUSB_TRANSFER_OVERFLOW?$AA@ 100384bc     node_usb.obj
 0002:000064d8       ??_C@_0BN@PCPLLDKB@LIBUSB_TRANSFER_SHORT_NOT_OK?$AA@ 100384d8     node_usb.obj
 0002:000064f8       ??_C@_0BM@FEHDGKEG@LIBUSB_TRANSFER_FREE_BUFFER?$AA@ 100384f8     node_usb.obj
 0002:00006514       ??_C@_0BO@DJKIGIKA@LIBUSB_TRANSFER_FREE_TRANSFER?$AA@ 10038514     node_usb.obj
 0002:00006534       ??_C@_0BN@KDGGGCBF@LIBUSB_REQUEST_TYPE_STANDARD?$AA@ 10038534     node_usb.obj
 0002:00006554       ??_C@_0BK@PHMBDOPK@LIBUSB_REQUEST_TYPE_CLASS?$AA@ 10038554     node_usb.obj
 0002:00006570       ??_C@_0BL@JNFJKFKI@LIBUSB_REQUEST_TYPE_VENDOR?$AA@ 10038570     node_usb.obj
 0002:0000658c       ??_C@_0BN@KFINICDG@LIBUSB_REQUEST_TYPE_RESERVED?$AA@ 1003858c     node_usb.obj
 0002:000065ac       ??_C@_0BI@DHBGDDBP@LIBUSB_RECIPIENT_DEVICE?$AA@ 100385ac     node_usb.obj
 0002:000065c4       ??_C@_0BL@LGLLFABA@LIBUSB_RECIPIENT_INTERFACE?$AA@ 100385c4     node_usb.obj
 0002:000065e0       ??_C@_0BK@MHPGOEBM@LIBUSB_RECIPIENT_ENDPOINT?$AA@ 100385e0     node_usb.obj
 0002:000065fc       ??_C@_0BH@BFPMOONN@LIBUSB_RECIPIENT_OTHER?$AA@ 100385fc     node_usb.obj
 0002:00006614       ??_C@_0BK@KAJADDJC@LIBUSB_CONTROL_SETUP_SIZE?$AA@ 10038614     node_usb.obj
 0002:00006630       ??_C@_0BA@PGICLKN@LIBUSB_ERROR_IO?$AA@ 10038630     node_usb.obj
 0002:00006640       ??_C@_0BL@BILCLBJN@LIBUSB_ERROR_INVALID_PARAM?$AA@ 10038640     node_usb.obj
 0002:0000665c       ??_C@_0BE@LOFKAOBD@LIBUSB_ERROR_ACCESS?$AA@ 1003865c     node_usb.obj
 0002:00006670       ??_C@_0BH@JFKAPOCC@LIBUSB_ERROR_NO_DEVICE?$AA@ 10038670     node_usb.obj
 0002:00006688       ??_C@_0BH@ENHLOHCI@LIBUSB_ERROR_NOT_FOUND?$AA@ 10038688     node_usb.obj
 0002:000066a0       ??_C@_0BC@PKOCMEJC@LIBUSB_ERROR_BUSY?$AA@ 100386a0     node_usb.obj
 0002:000066b4       ??_C@_0BF@OOLEBGGE@LIBUSB_ERROR_TIMEOUT?$AA@ 100386b4     node_usb.obj
 0002:000066cc       ??_C@_0BG@CJILGPFO@LIBUSB_ERROR_OVERFLOW?$AA@ 100386cc     node_usb.obj
 0002:000066e4       ??_C@_0BC@BODMALFD@LIBUSB_ERROR_PIPE?$AA@ 100386e4     node_usb.obj
 0002:000066f8       ??_C@_0BJ@HMLOBDCD@LIBUSB_ERROR_INTERRUPTED?$AA@ 100386f8     node_usb.obj
 0002:00006714       ??_C@_0BE@JDJOAMPA@LIBUSB_ERROR_NO_MEM?$AA@ 10038714     node_usb.obj
 0002:00006728       ??_C@_0BL@ENKIGOH@LIBUSB_ERROR_NOT_SUPPORTED?$AA@ 10038728     node_usb.obj
 0002:00006744       ??_C@_0BD@IFKMJPJO@LIBUSB_ERROR_OTHER?$AA@ 10038744     node_usb.obj
 0002:00006758       ??_C@_05PEAMIKEP@errno?$AA@ 10038758     node_usb.obj
 0002:00006760       ??_C@_0BC@KBDMBKEH@deque?$DMT?$DO?5too?5long?$AA@ 10038760     node_usb.obj
 0002:00006774       ??_C@_0BL@DLMEPNJL@Must?5be?5called?5with?5?$GAnew?$GA?$CB?$AA@ 10038774     device.obj
 0002:00006790       ??_C@_0BF@HGPEJPKP@Expected?51?5arguments?$AA@ 10038790     device.obj
 0002:000067a8       ??_C@_0CG@JKGHNEPF@This?5type?5cannot?5be?5created?5dire@ 100387a8     device.obj
 0002:000067d0       ??_C@_09LNMPFPLA@busNumber?$AA@ 100387d0     device.obj
 0002:000067dc       ??_C@_0O@LAMHLHBN@deviceAddress?$AA@ 100387dc     device.obj
 0002:000067ec       ??_C@_0BB@KBBENPEB@deviceDescriptor?$AA@ 100387ec     device.obj
 0002:00006800       ??_C@_07KNKOCBAB@bLength?$AA@ 10038800     device.obj
 0002:00006808       ??_C@_0BA@ECGADEPI@bDescriptorType?$AA@ 10038808     device.obj
 0002:00006818       ??_C@_06MMAOJDMK@bcdUSB?$AA@ 10038818     device.obj
 0002:00006820       ??_C@_0N@EIOOIHD@bDeviceClass?$AA@ 10038820     device.obj
 0002:00006830       ??_C@_0BA@DDJBIIG@bDeviceSubClass?$AA@ 10038830     device.obj
 0002:00006840       ??_C@_0BA@HNBGJNFO@bDeviceProtocol?$AA@ 10038840     device.obj
 0002:00006850       ??_C@_0BA@CIHOCNDF@bMaxPacketSize0?$AA@ 10038850     device.obj
 0002:00006860       ??_C@_08GJGPAOJK@idVendor?$AA@ 10038860     device.obj
 0002:0000686c       ??_C@_09NGOKKPHI@idProduct?$AA@ 1003886c     device.obj
 0002:00006878       ??_C@_09HCPCNIBK@bcdDevice?$AA@ 10038878     device.obj
 0002:00006884       ??_C@_0O@ONJPIALC@iManufacturer?$AA@ 10038884     device.obj
 0002:00006894       ??_C@_08PNEBLEN@iProduct?$AA@ 10038894     device.obj
 0002:000068a0       ??_C@_0O@KDNNFOPA@iSerialNumber?$AA@ 100388a0     device.obj
 0002:000068b0       ??_C@_0BD@ELGGIBHL@bNumConfigurations?$AA@ 100388b0     device.obj
 0002:000068c4       ??_C@_0M@LGPPJLCG@portNumbers?$AA@ 100388c4     device.obj
 0002:000068d0       ??_C@_0BF@ONFBNDMA@Expected?50?5arguments?$AA@ 100388d0     device.obj
 0002:000068e8       ??_C@_0CH@NMCJNNLO@Device?5method?5called?5on?5invalid?5@ 100388e8     device.obj
 0002:00006910       ??_C@_0N@FNBOGDIM@wTotalLength?$AA@ 10038910     device.obj
 0002:00006920       ??_C@_0P@GMGKCPGO@bNumInterfaces?$AA@ 10038920     device.obj
 0002:00006930       ??_C@_0BE@JFCBOIH@bConfigurationValue?$AA@ 10038930     device.obj
 0002:00006944       ??_C@_0P@MKKPOFNE@iConfiguration?$AA@ 10038944     device.obj
 0002:00006954       ??_C@_0N@EHPEIAJK@bmAttributes?$AA@ 10038954     device.obj
 0002:00006964       ??_C@_09JHGNPLAM@bMaxPower?$AA@ 10038964     device.obj
 0002:00006970       ??_C@_05BAGILKKI@extra?$AA@ 10038970     device.obj
 0002:00006978       ??_C@_0L@CHBOOGMA@interfaces?$AA@ 10038978     device.obj
 0002:00006984       ??_C@_0BB@HCANAKFH@bInterfaceNumber?$AA@ 10038984     device.obj
 0002:00006998       ??_C@_0BC@GJPMNOEG@bAlternateSetting?$AA@ 10038998     device.obj
 0002:000069ac       ??_C@_0O@JGFNFHPO@bNumEndpoints?$AA@ 100389ac     device.obj
 0002:000069bc       ??_C@_0BA@COKCOHND@bInterfaceClass?$AA@ 100389bc     device.obj
 0002:000069cc       ??_C@_0BD@GPABDFOA@bInterfaceSubClass?$AA@ 100389cc     device.obj
 0002:000069e0       ??_C@_0BD@BBCOLADI@bInterfaceProtocol?$AA@ 100389e0     device.obj
 0002:000069f4       ??_C@_0L@DJGCDIAA@iInterface?$AA@ 100389f4     device.obj
 0002:00006a00       ??_C@_09OGEALONL@endpoints?$AA@ 10038a00     device.obj
 0002:00006a0c       ??_C@_0BB@ICPMJBPC@bEndpointAddress?$AA@ 10038a0c     device.obj
 0002:00006a20       ??_C@_0P@CNKJLKFA@wMaxPacketSize?$AA@ 10038a20     device.obj
 0002:00006a30       ??_C@_09HDDCOHJD@bInterval?$AA@ 10038a30     device.obj
 0002:00006a3c       ??_C@_08PDKLKPF@bRefresh?$AA@ 10038a3c     device.obj
 0002:00006a48       ??_C@_0O@EFHJKDPM@bSynchAddress?$AA@ 10038a48     device.obj
 0002:00006a58       ??_C@_0CK@EMBDLDPH@Can?8t?5close?5device?5with?5a?5pendin@ 10038a58     device.obj
 0002:00006a84       ??_C@_0BF@LFJMAMBO@Device?5is?5not?5opened?$AA@ 10038a84     device.obj
 0002:00006a9c       ??_C@_0BO@EOGBJBPM@Argument?50?5must?5be?5a?5function?$AA@ 10038a9c     device.obj
 0002:00006abc       ??_C@_0CJ@MPIDPFBN@Parameter?5interface?5?$CI0?$CJ?5should?5b@ 10038abc     device.obj
 0002:00006ae8       ??_C@_0BO@NBLLBCGC@Argument?51?5must?5be?5a?5function?$AA@ 10038ae8     device.obj
 0002:00006b08       ??_C@_0BF@BGKENFP@Expected?52?5arguments?$AA@ 10038b08     device.obj
 0002:00006b20       ??_C@_0CK@LGGIGBGF@Parameter?5altsetting?5?$CI1?$CJ?5should?5@ 10038b20     device.obj
 0002:00006b4c       ??_C@_0BO@KKKFJAIB@Argument?52?5must?5be?5a?5function?$AA@ 10038b4c     device.obj
 0002:00006b6c       ??_C@_0CH@HCAHMLKH@Parameter?5desired?5?$CI0?$CJ?5should?5be?5@ 10038b6c     device.obj
 0002:00006b94       ??_C@_06OIEJKIHP@Device?$AA@ 10038b94     device.obj
 0002:00006b9c       ??_C@_0BG@CEPONHLF@__getConfigDescriptor?$AA@ 10038b9c     device.obj
 0002:00006bb4       ??_C@_06IPOJAMBP@__open?$AA@ 10038bb4     device.obj
 0002:00006bbc       ??_C@_07DMJMBBKE@__close?$AA@ 10038bbc     device.obj
 0002:00006bc4       ??_C@_05CFMALAOA@reset?$AA@ 10038bc4     device.obj
 0002:00006bcc       ??_C@_0BB@HCAAAPAN@__claimInterface?$AA@ 10038bcc     device.obj
 0002:00006be0       ??_C@_0BD@IBOHEIAB@__releaseInterface?$AA@ 10038be0     device.obj
 0002:00006bf4       ??_C@_0P@PMBFFAFB@__setInterface?$AA@ 10038bf4     device.obj
 0002:00006c04       ??_C@_0BD@HEKKMOIF@__setConfiguration?$AA@ 10038c04     device.obj
 0002:00006c18       ??_C@_0BH@JACGJJHA@__isKernelDriverActive?$AA@ 10038c18     device.obj
 0002:00006c30       ??_C@_0BF@GEGFHKIO@__detachKernelDriver?$AA@ 10038c30     device.obj
 0002:00006c48       ??_C@_0BF@JLBOBNMN@__attachKernelDriver?$AA@ 10038c48     device.obj
 0002:00006c60       ??_C@_0BE@JONHPENG@map?1set?$DMT?$DO?5too?5long?$AA@ 10038c60     device.obj
 0002:00006c74       ??_7Device@@6B@            10038c74     device.obj
 0002:00006c80       ??_7ObjectWrap@Nan@@6B@    10038c80     device.obj
 0002:00006c8c       ??_C@_0BF@HFPCKENA@Expected?55?5arguments?$AA@ 10038c8c     transfer.obj
 0002:00006ca4       ??_C@_0CC@JGNDOODC@Parameter?5device?5is?5not?5an?5objec@ 10038ca4     transfer.obj
 0002:00006cc8       ??_C@_0CK@EKEDGFOK@Parameter?5device?5?$CI0?$CJ?5is?5of?5incor@ 10038cc8     transfer.obj
 0002:00006cf4       ??_C@_0CI@PKPBCKGA@Parameter?5endpoint?5?$CI1?$CJ?5should?5be@ 10038cf4     transfer.obj
 0002:00006d1c       ??_C@_0CE@GPOJMNGM@Parameter?5type?5?$CI2?$CJ?5should?5be?5num@ 10038d1c     transfer.obj
 0002:00006d40       ??_C@_0CH@FLDPBLND@Parameter?5timeout?5?$CI3?$CJ?5should?5be?5@ 10038d40     transfer.obj
 0002:00006d68       ??_C@_0BO@FMJIJFEH@Argument?54?5must?5be?5a?5function?$AA@ 10038d68     transfer.obj
 0002:00006d88       ??_C@_06CHPEJBOD@device?$AA@ 10038d88     transfer.obj
 0002:00006d90       ??_C@_0CJ@OBFJKNJ@Transfer?5method?5called?5on?5invali@ 10038d90     transfer.obj
 0002:00006dbc       ??_C@_0BL@FAMKACNB@Transfer?5is?5already?5active?$AA@ 10038dbc     transfer.obj
 0002:00006dd8       ??_C@_0BO@NEEDOAJD@Buffer?5arg?5?$FL0?$FN?5must?5be?5Buffer?$AA@ 10038dd8     transfer.obj
 0002:00006df8       ??_C@_0BD@JHOHHGJC@Device?5is?5not?5open?$AA@ 10038df8     transfer.obj
 0002:00006e0c       ??_C@_08DECIGEMC@Transfer?$AA@ 10038e0c     transfer.obj
 0002:00006e18       ??_C@_06MCBHDBOL@submit?$AA@ 10038e18     transfer.obj
 0002:00006e20       ??_C@_06JDKABGKH@cancel?$AA@ 10038e20     transfer.obj
 0002:00006e28       ??_7Transfer@@6B@          10038e28     transfer.obj
 0002:00006e34       ??_C@_00CNPNBAHC@?$AA@     10038e34     libusb:core.obj
 0002:00006e38       ??_C@_0BD@GCMFAHAH@http?3?1?1libusb?4info?$AA@ 10038e38     libusb:core.obj
 0002:00006e4c       ??_C@_0BK@MCKNDLHA@need?5to?5increase?5capacity?$AA@ 10038e4c     libusb:core.obj
 0002:00006e68       ??_C@_0BH@GLOJKKCD@discovered_devs_append?$AA@ 10038e68     libusb:core.obj
 0002:00006e80       ??_C@_0BO@PIGMIBCG@error?5writing?5hotplug?5message?$AA@ 10038e80     libusb:core.obj
 0002:00006ea0       ??_C@_0BE@LKAECNPB@usbi_connect_device?$AA@ 10038ea0     libusb:core.obj
 0002:00006eb4       ??_C@_0BH@EEGMJBEH@usbi_disconnect_device?$AA@ 10038eb4     libusb:core.obj
 0002:00006ecc       ??_C@_0BI@NJMIAPGA@too?5many?5configurations?$AA@ 10038ecc     libusb:core.obj
 0002:00006ee4       ??_C@_0BF@GHLFCDB@usbi_sanitize_device?$AA@ 10038ee4     libusb:core.obj
 0002:00006efc       ??_C@_0DC@FBICHMP@zero?5configurations?0?5maybe?5an?5un@ 10038efc     libusb:core.obj
 0002:00006f30       ??_C@_0BH@KENKLPKK@libusb_get_device_list?$AA@ 10038f30     libusb:core.obj
 0002:00006f48       ??_C@_0CA@JKBKKOOC@port?5numbers?5array?5is?5too?5small?$AA@ 10038f48     libusb:core.obj
 0002:00006f68       ??_C@_0BI@PNGEDIIM@libusb_get_port_numbers?$AA@ 10038f68     libusb:core.obj
 0002:00006f80       ??_C@_0BF@FLDLJCHC@destroy?5device?5?$CFd?4?$CFd?$AA@ 10038f80     libusb:core.obj
 0002:00006f98       ??_C@_0BE@LHHLFPBK@libusb_unref_device?$AA@ 10038f98     libusb:core.obj
 0002:00006fac       ??_C@_0CB@EJNEFMLO@internal?5signalling?5write?5failed@ 10038fac     libusb:core.obj
 0002:00006fd0       ??_C@_0BF@ICGODPBF@usbi_fd_notification?$AA@ 10038fd0     libusb:core.obj
 0002:00006fe8       ??_C@_0CA@BNHKPPDF@internal?5signalling?5read?5failed?$AA@ 10038fe8     libusb:core.obj
 0002:00007008       ??_C@_0L@PJBMFBCG@open?5?$CFd?4?$CFd?$AA@ 10039008     libusb:core.obj
 0002:00007014       ??_C@_0M@OLNMJMAM@libusb_open?$AA@ 10039014     libusb:core.obj
 0002:00007020       ??_C@_0BG@DKDPFEJE@open?5?$CFd?4?$CFd?5returns?5?$CFd?$AA@ 10039020     libusb:core.obj
 0002:00007038       ??_C@_0HD@HKCJFNMF@Device?5handle?5closed?5while?5trans@ 10039038     libusb:core.obj
 0002:000070ac       ??_C@_08DLPFFJLG@do_close?$AA@ 100390ac     libusb:core.obj
 0002:000070b8       ??_C@_0FI@HOBMCGML@A?5cancellation?5for?5an?5in?9flight?5@ 100390b8     libusb:core.obj
 0002:00007110       ??_C@_0FK@OKLNMFJD@A?5cancellation?5hasn?8t?5even?5been?5@ 10039110     libusb:core.obj
 0002:00007170       ??_C@_0EM@BBDLPIJB@Removed?5transfer?5?$CFp?5from?5the?5in?9@ 10039170     libusb:core.obj
 0002:000071bc       ??_C@_0N@LIEGGFOK@libusb_close?$AA@ 100391bc     libusb:core.obj
 0002:000071cc       ??_C@_0DB@GNEBCNGH@internal?5signalling?5write?5failed@ 100391cc     libusb:core.obj
 0002:00007200       ??_C@_0DA@PAOHNACP@internal?5signalling?5read?5failed?0@ 10039200     libusb:core.obj
 0002:00007230       ??_C@_0BB@OPFKHNNH@configuration?5?$CFd?$AA@ 10039230     libusb:core.obj
 0002:00007244       ??_C@_0BJ@MODFEMNB@libusb_set_configuration?$AA@ 10039244     libusb:core.obj
 0002:00007260       ??_C@_0N@GEDMDNPJ@interface?5?$CFd?$AA@ 10039260     libusb:core.obj
 0002:00007270       ??_C@_0BH@KLALIEOA@libusb_claim_interface?$AA@ 10039270     libusb:core.obj
 0002:00007288       ??_C@_0BJ@IANFCFCP@libusb_release_interface?$AA@ 10039288     libusb:core.obj
 0002:000072a4       ??_C@_0BL@BBJPIGME@interface?5?$CFd?5altsetting?5?$CFd?$AA@ 100392a4     libusb:core.obj
 0002:000072c0       ??_C@_0CB@MKGGDBBC@libusb_set_interface_alt_setting@ 100392c0     libusb:core.obj
 0002:000072e4       ??_C@_0BE@PICCEIHL@libusb_reset_device?$AA@ 100392e4     libusb:core.obj
 0002:000072f8       ??_C@_0BM@EEBMGADI@libusb_kernel_driver_active?$AA@ 100392f8     libusb:core.obj
 0002:00007314       ??_C@_0BM@JDKJCJNF@libusb_detach_kernel_driver?$AA@ 10039314     libusb:core.obj
 0002:00007330       ??_C@_0BM@JLCLDOJD@libusb_attach_kernel_driver?$AA@ 10039330     libusb:core.obj
 0002:0000734c       ??_C@_0N@LOBNOKHP@LIBUSB_DEBUG?$AA@ 1003934c     libusb:core.obj
 0002:0000735c       ??_C@_0M@GNGNEKLP@libusb_init?$AA@ 1003935c     libusb:core.obj
 0002:00007368       ??_C@_0BI@HEBLGGCB@created?5default?5context?$AA@ 10039368     libusb:core.obj
 0002:00007380       ??_C@_0BE@HGNGOBKB@libusb?5v?$CFd?4?$CFd?4?$CFd?4?$CFd?$AA@ 10039380     libusb:core.obj
 0002:00007398       ??_C@_0EB@NKANGJKP@?$FLtimestamp?$FN?5?$FLthreadID?$FN?5facility?5@ 10039398     libusb:core.obj
 0002:000073e0       ??_C@_0FC@MOLDIHLM@?9?9?9?9?9?9?9?9?9?9?9?9?9?9?9?9?9?9?9?9?9?9?9?9?9?9?9?9?9?9?9?9@ 100393e0     libusb:core.obj
 0002:00007434       ??_C@_04NIDJFNBE@info?$AA@ 10039434     libusb:core.obj
 0002:0000743c       ??_C@_07FPLKDJGL@warning?$AA@ 1003943c     libusb:core.obj
 0002:00007444       ??_C@_05KKCIMGE@error?$AA@ 10039444     libusb:core.obj
 0002:0000744c       ??_C@_05GFCDIDHO@debug?$AA@ 1003944c     libusb:core.obj
 0002:00007454       ??_C@_07CIFAGBMG@unknown?$AA@ 10039454     libusb:core.obj
 0002:0000745c       ??_C@_0CD@MOLNDELD@?$FL?$CF2d?4?$CF06d?$FN?5?$FL?$CF08x?$FN?5libusb?3?5?$CFs?5?$FL?$CFs@ 1003945c     libusb:core.obj
 0002:00007480       ??_C@_0BB@DEGKMPPL@libusb?3?5?$CFs?5?$FL?$CFs?$FN?5?$AA@ 10039480     libusb:core.obj
 0002:00007494       ??_C@_0CL@NGJAAHCE@LIBUSB_SUCCESS?5?1?5LIBUSB_TRANSFER@ 10039494     libusb:core.obj
 0002:000074c0       ??_C@_0M@GOPGBDCO@?$CK?$CKUNKNOWN?$CK?$CK?$AA@ 100394c0     libusb:core.obj
 0002:000074e0       _usbi_backend              100394e0     libusb:core.obj
 0002:000074e4       _INVALID_WINFD             100394e4     libusb:poll_windows.obj
 0002:000074fc       _sub_api_name              100394fc     libusb:windows_usb.obj
 0002:00007508       _windows_backend           10039508     libusb:windows_usb.obj
 0002:00007590       _epoch_time                10039590     libusb:windows_usb.obj
 0002:000075a0       _usb_api_backend           100395a0     libusb:windows_usb.obj
 0002:00007730       _GUID_DEVINTERFACE_LIBUSB0_FILTER 10039730     libusb:windows_usb.obj
 0002:00007740       _GUID_DEVINTERFACE_USB_HUB 10039740     libusb:windows_usb.obj
 0002:00007760       _GUID_DEVINTERFACE_USB_DEVICE 10039760     libusb:windows_usb.obj
 0002:00007770       ??_C@_0CD@CGJODBFN@libusb_hotplug_deregister_callba@ 10039770     libusb:hotplug.obj
 0002:00007794       ??_C@_0CJ@MOBPENON@failed?5to?5read?5monotonic?5clock?0?5@ 10039794     libusb:io.obj
 0002:000077c0       ??_C@_0BC@JIMGLFOJ@calculate_timeout?$AA@ 100397c0     libusb:io.obj
 0002:000077d4       ??_C@_0BH@KCKEHCFE@libusb_cancel_transfer?$AA@ 100397d4     libusb:io.obj
 0002:000077ec       ??_C@_0CA@JHHAHIKF@cancel?5transfer?5failed?5error?5?$CFd?$AA@ 100397ec     libusb:io.obj
 0002:0000780c       ??_C@_0CF@GFPMGCLN@interpreting?5short?5transfer?5as?5e@ 1003980c     libusb:io.obj
 0002:00007834       ??_C@_0CA@JBOEDEHB@usbi_handle_transfer_completion?$AA@ 10039834     libusb:io.obj
 0002:00007854       ??_C@_0BM@DECJEOHC@transfer?5?$CFp?5has?5callback?5?$CFp?$AA@ 10039854     libusb:io.obj
 0002:00007870       ??_C@_0CD@KHMMOMIH@someone?5else?5is?5modifying?5poll?5f@ 10039870     libusb:io.obj
 0002:00007894       ??_C@_0BH@CAHGFBNO@libusb_try_lock_events?$AA@ 10039894     libusb:io.obj
 0002:000078ac       ??_C@_0BM@OGKJNLCP@libusb_event_handler_active?$AA@ 100398ac     libusb:io.obj
 0002:000078c8       ??_C@_0CI@GJIBBDMK@failed?5to?5read?5realtime?5clock?0?5e@ 100398c8     libusb:io.obj
 0002:000078f0       ??_C@_0BG@MOIPDINC@libusb_wait_for_event?$AA@ 100398f0     libusb:io.obj
 0002:00007908       ??_C@_0CA@FMFFFBFF@async?5cancel?5failed?5?$CFd?5errno?$DN?$CFd?$AA@ 10039908     libusb:io.obj
 0002:00007928       ??_C@_0P@CEDFMCP@handle_timeout?$AA@ 10039928     libusb:io.obj
 0002:00007938       ??_C@_0CA@BICGPKNN@poll?5fds?5modified?0?5reallocating?$AA@ 10039938     libusb:io.obj
 0002:00007958       ??_C@_0O@OLNGJAAF@handle_events?$AA@ 10039958     libusb:io.obj
 0002:00007968       ??_C@_1CM@BENONAOM@?$AA?4?$AA?4?$AA?2?$AAl?$AAi?$AAb?$AAu?$AAs?$AAb?$AA?2?$AAl?$AAi?$AAb?$AAu?$AAs?$AAb?$AA?2?$AAi?$AAo?$AA?4?$AAc?$AA?$AA@ 10039968     libusb:io.obj
 0002:00007998       ??_C@_1EE@KNGEKLDK@?$AAc?$AAt?$AAx?$AA?9?$AA?$DO?$AAp?$AAo?$AAl?$AAl?$AAf?$AAd?$AAs?$AA_?$AAc?$AAn?$AAt?$AA?5?$AA?$DO?$AA?$DN?$AA?5?$AAi?$AAn?$AAt?$AAe?$AAr?$AAn?$AAa?$AAl?$AA_?$AAn?$AAf?$AAd@ 10039998     libusb:io.obj
 0002:000079dc       ??_C@_0CD@OLBPHAEN@poll?$CI?$CJ?5?$CFd?5fds?5with?5timeout?5in?5?$CFd@ 100399dc     libusb:io.obj
 0002:00007a00       ??_C@_0BD@JBCFEJDE@poll?$CI?$CJ?5returned?5?$CFd?$AA@ 10039a00     libusb:io.obj
 0002:00007a14       ??_C@_0BH@MIJBFMMJ@poll?5failed?5?$CFd?5err?$DN?$CFd?6?$AA@ 10039a14     libusb:io.obj
 0002:00007a2c       ??_C@_0CC@JGPFJPCJ@caught?5a?5fish?5on?5the?5control?5pip@ 10039a2c     libusb:io.obj
 0002:00007a50       ??_C@_0CC@LPPAPMEF@caught?5a?5fish?5on?5the?5hotplug?5pip@ 10039a50     libusb:io.obj
 0002:00007a74       ??_C@_0CB@FLHFBPOI@hotplug?5pipe?5read?5error?5?$CFd?5?$CB?$DN?5?$CFu@ 10039a74     libusb:io.obj
 0002:00007a98       ??_C@_0CL@CMJPEJMP@backend?5handle_events?5failed?5wit@ 10039a98     libusb:io.obj
 0002:00007ac4       ??_C@_0BN@KKBHNNHN@doing?5our?5own?5event?5handling?$AA@ 10039ac4     libusb:io.obj
 0002:00007ae4       ??_C@_0CH@OHDLONKD@libusb_handle_events_timeout_com@ 10039ae4     libusb:io.obj
 0002:00007b0c       ??_C@_0DB@DKIFLIIP@event?5handler?5was?5active?5but?5wen@ 10039b0c     libusb:io.obj
 0002:00007b40       ??_C@_0CH@PAHEHJMH@another?5thread?5is?5doing?5event?5ha@ 10039b40     libusb:io.obj
 0002:00007b68       ??_C@_0BF@HKKIGJLI@no?5URBs?0?5no?5timeout?$CB?$AA@ 10039b68     libusb:io.obj
 0002:00007b80       ??_C@_0BI@GBILEFGM@libusb_get_next_timeout?$AA@ 10039b80     libusb:io.obj
 0002:00007b98       ??_C@_0DG@HCDBNEMH@no?5URB?5with?5timeout?5or?5all?5handl@ 10039b98     libusb:io.obj
 0002:00007bd0       ??_C@_0BO@NJODDAFE@first?5timeout?5already?5expired?$AA@ 10039bd0     libusb:io.obj
 0002:00007bf0       ??_C@_0BJ@LKOKEKII@next?5timeout?5in?5?$CFd?4?$CF06ds?$AA@ 10039bf0     libusb:io.obj
 0002:00007c0c       ??_C@_0BE@NABDDFHE@add?5fd?5?$CFd?5events?5?$CFd?$AA@ 10039c0c     libusb:io.obj
 0002:00007c20       ??_C@_0BA@LKIMEOGN@usbi_add_pollfd?$AA@ 10039c20     libusb:io.obj
 0002:00007c30       ??_C@_0N@NIELHKCI@remove?5fd?5?$CFd?$AA@ 10039c30     libusb:io.obj
 0002:00007c40       ??_C@_0BD@KADFFHII@usbi_remove_pollfd?$AA@ 10039c40     libusb:io.obj
 0002:00007c54       ??_C@_0BO@NHOHDOIK@couldn?8t?5find?5fd?5?$CFd?5to?5remove?$AA@ 10039c54     libusb:io.obj
 0002:00007c74       ??_C@_0CF@GJHGPBKO@short?5endpoint?5descriptor?5read?5?$CF@ 10039c74     libusb:descriptor.obj
 0002:00007c9c       ??_C@_0P@CMFKCEAH@parse_endpoint?$AA@ 10039c9c     libusb:descriptor.obj
 0002:00007cac       ??_C@_02BMCGDAIG@bb?$AA@   10039cac     libusb:descriptor.obj
 0002:00007cb0       ??_C@_0CH@DFJIBHNK@unexpected?5descriptor?5?$CFx?5?$CIexpect@ 10039cb0     libusb:descriptor.obj
 0002:00007cd8       ??_C@_08GGPNADBE@bbbbwbbb?$AA@ 10039cd8     libusb:descriptor.obj
 0002:00007ce4       ??_C@_06EPCOLPEJ@bbbbwb?$AA@ 10039ce4     libusb:descriptor.obj
 0002:00007cec       ??_C@_0BO@CBJPMHAC@invalid?5endpoint?5bLength?5?$CI?$CFd?$CJ?$AA@ 10039cec     libusb:descriptor.obj
 0002:00007d0c       ??_C@_0BP@IPDLMMF@invalid?5extra?5ep?5desc?5len?5?$CI?$CFd?$CJ?$AA@ 10039d0c     libusb:descriptor.obj
 0002:00007d2c       ??_C@_0BP@BINMIKJI@short?5extra?5ep?5desc?5read?5?$CFd?1?$CFd?$AA@ 10039d2c     libusb:descriptor.obj
 0002:00007d4c       ??_C@_0BH@JJNCHMPL@skipping?5descriptor?5?$CFx?$AA@ 10039d4c     libusb:descriptor.obj
 0002:00007d64       ??_C@_09BOGMLDHD@bbbbbbbbb?$AA@ 10039d64     libusb:descriptor.obj
 0002:00007d70       ??_C@_0BA@KJLBBBJO@parse_interface?$AA@ 10039d70     libusb:descriptor.obj
 0002:00007d80       ??_C@_0BP@OJGFOKNB@invalid?5interface?5bLength?5?$CI?$CFd?$CJ?$AA@ 10039d80     libusb:descriptor.obj
 0002:00007da0       ??_C@_0CB@NCLBAJNC@short?5intf?5descriptor?5read?5?$CFd?1?$CFd@ 10039da0     libusb:descriptor.obj
 0002:00007dc4       ??_C@_0BI@BKGGAFKL@too?5many?5endpoints?5?$CI?$CFd?$CJ?$AA@ 10039dc4     libusb:descriptor.obj
 0002:00007ddc       ??_C@_0CB@DBKILMN@invalid?5extra?5intf?5desc?5len?5?$CI?$CFd?$CJ@ 10039ddc     libusb:descriptor.obj
 0002:00007e00       ??_C@_0CB@DBIHAOAG@short?5extra?5intf?5desc?5read?5?$CFd?1?$CFd@ 10039e00     libusb:descriptor.obj
 0002:00007e24       ??_C@_0CD@DCMKILDH@short?5config?5descriptor?5read?5?$CFd?1@ 10039e24     libusb:descriptor.obj
 0002:00007e48       ??_C@_0BE@PKLGALLE@parse_configuration?$AA@ 10039e48     libusb:descriptor.obj
 0002:00007e5c       ??_C@_08PLBLKIIP@bbwbbbbb?$AA@ 10039e5c     libusb:descriptor.obj
 0002:00007e68       ??_C@_0BM@ELDIBEBL@invalid?5config?5bLength?5?$CI?$CFd?$CJ?$AA@ 10039e68     libusb:descriptor.obj
 0002:00007e84       ??_C@_0BJ@LCMFLJJD@too?5many?5interfaces?5?$CI?$CFd?$CJ?$AA@ 10039e84     libusb:descriptor.obj
 0002:00007ea0       ??_C@_0CD@MFLIEJBI@invalid?5extra?5config?5desc?5len?5?$CI?$CF@ 10039ea0     libusb:descriptor.obj
 0002:00007ec4       ??_C@_0CD@EBELNJED@short?5extra?5config?5desc?5read?5?$CFd?1@ 10039ec4     libusb:descriptor.obj
 0002:00007ee8       ??_C@_0BK@DGDMAEOM@skipping?5descriptor?50x?$CFx?6?$AA@ 10039ee8     libusb:descriptor.obj
 0002:00007f04       ??_C@_0CJ@JAFDMFDI@parse_configuration?5failed?5with?5@ 10039f04     libusb:descriptor.obj
 0002:00007f30       ??_C@_0BD@LGHOLJCC@raw_desc_to_config?$AA@ 10039f30     libusb:descriptor.obj
 0002:00007f44       ??_C@_0CH@NAMOIEMB@still?5?$CFd?5bytes?5of?5descriptor?5dat@ 10039f44     libusb:descriptor.obj
 0002:00007f6c       ??_C@_0BN@HMAIOHAI@libusb_get_device_descriptor?$AA@ 10039f6c     libusb:descriptor.obj
 0002:00007f8c       ??_C@_0CE@LNIGJPBA@libusb_get_active_config_descrip@ 10039f8c     libusb:descriptor.obj
 0002:00007fb0       ??_C@_03GELJOPBE@bbw?$AA@  10039fb0     libusb:descriptor.obj
 0002:00007fb4       ??_C@_08FNBALGKA@index?5?$CFd?$AA@ 10039fb4     libusb:descriptor.obj
 0002:00007fc0       ??_C@_0BN@NMNNDPKJ@libusb_get_config_descriptor?$AA@ 10039fc0     libusb:descriptor.obj
 0002:00007fe0       ??_C@_08CPNIBGIE@KERNEL32?$AA@ 10039fe0     libusb:poll_windows.obj
 0002:00007fec       ??_C@_0L@COJLGOAG@CancelIoEx?$AA@ 10039fec     libusb:poll_windows.obj
 0002:00007ff8       ??_C@_02JBAJJKDI@Ex?$AA@   10039ff8     libusb:poll_windows.obj
 0002:00007ffc       ??_C@_0CJ@HGIJIOCG@Will?5use?5CancelIo?$CFs?5for?5I?1O?5canc@ 10039ffc     libusb:poll_windows.obj
 0002:00008028       ??_C@_0BA@DDEGEBAF@setup_cancel_io?$AA@ 1003a028     libusb:poll_windows.obj
 0002:00008038       ??_C@_0DK@MIDKNMBB@Unable?5to?5cancel?5I?1O?5that?5was?5st@ 1003a038     libusb:poll_windows.obj
 0002:00008074       ??_C@_09CAHEMFHK@cancel_io?$AA@ 1003a074     libusb:poll_windows.obj
 0002:00008080       ??_C@_0CL@BMNLBPBM@There?5are?5some?5pending?5events?5in@ 1003a080     libusb:poll_windows.obj
 0002:000080ac       ??_C@_0N@GEEAHPPA@exit_polling?$AA@ 1003a0ac     libusb:poll_windows.obj
 0002:000080bc       ??_C@_0BA@CLIOLGIH@no?5item?5to?5free?$AA@ 1003a0bc     libusb:poll_windows.obj
 0002:000080d0       ??_C@_0IF@CDPHAAAC@only?5one?5of?5RW_READ?5or?5RW_WRITE?5@ 1003a0d0     libusb:poll_windows.obj
 0002:00008158       ??_C@_0P@PFGABCEO@usbi_create_fd?$AA@ 1003a158     libusb:poll_windows.obj
 0002:00008168       ??_C@_0DN@JIFFPAJL@could?5not?5duplicate?5handle?5for?5C@ 1003a168     libusb:poll_windows.obj
 0002:000081a8       ??_C@_0M@MPDNALIG@_free_index?$AA@ 1003a1a8     libusb:poll_windows.obj
 0002:000081b4       ??_C@_07MLNOJFPD@no?5item?$AA@ 1003a1b4     libusb:poll_windows.obj
 0002:000081bc       ??_C@_0BK@OFPIGMCK@unsupported?5set?5of?5events?$AA@ 1003a1bc     libusb:poll_windows.obj
 0002:000081d8       ??_C@_09KGBBCDOC@usbi_poll?$AA@ 1003a1d8     libusb:poll_windows.obj
 0002:000081e4       ??_C@_0L@NJBNHJG@invalid?5fd?$AA@ 1003a1e4     libusb:poll_windows.obj
 0002:000081f0       ??_C@_0CL@GOIAELAI@attempted?5POLLIN?5on?5fd?5without?5R@ 1003a1f0     libusb:poll_windows.obj
 0002:0000821c       ??_C@_0CN@GBPFLAEF@attempted?5POLLOUT?5on?5fd?5without?5@ 1003a21c     libusb:poll_windows.obj
 0002:0000824c       ??_C@_0BN@MFAPMJMJ@waiting?5for?5event?5failed?3?5?$CFd?$AA@ 1003a24c     libusb:poll_windows.obj
 0002:0000826c       ??_C@_09HDGNIJLN@usbi_read?$AA@ 1003a26c     libusb:poll_windows.obj
 0002:00008278       ??_C@_0BE@JALOCLNJ@no?5data?5in?5the?5poll?$AA@ 1003a278     libusb:poll_windows.obj
 0002:0000828c       ??_C@_08IADFOMKM@no?5pdata?$AA@ 1003a28c     libusb:poll_windows.obj
 0002:00008298       ??_C@_07OFNIHAKE@no?5data?$AA@ 1003a298     libusb:poll_windows.obj
 0002:000082a0       ??_C@_07FGONNLEI@libusbK?$AA@ 1003a2a0     libusb:windows_usb.obj
 0002:000082a8       ??_C@_07JKCGHLHF@libusb0?$AA@ 1003a2a8     libusb:windows_usb.obj
 0002:000082b0       ??_C@_06NNHOCCPI@WinUSB?$AA@ 1003a2b0     libusb:windows_usb.obj
 0002:000082b8       ??_C@_0DD@KLACBBLO@?$HL?$CF08X?9?$CF04X?9?$CF04X?9?$CF02X?$CF02X?9?$CF02X?$CF02@ 1003a2b8     libusb:windows_usb.obj
 0002:000082ec       ??_C@_05IMFEMPPD@?$FL?$CFu?$FN?5?$AA@ 1003a2ec     libusb:windows_usb.obj
 0002:000082f4       ??_C@_0DE@FBDNMKI@Windows?5error?5code?5?$CFu?5?$CIFormatMes@ 1003a2f4     libusb:windows_usb.obj
 0002:00008328       ??_C@_0BG@GNAEMCAG@Unknown?5error?5code?5?$CFu?$AA@ 1003a328     libusb:windows_usb.obj
 0002:00008340       ??_C@_04GBDIODIA@?2?2?4?2?$AA@ 1003a340     libusb:windows_usb.obj
 0002:00008348       ??_C@_0N@COCLAFLM@Cfgmgr32?4dll?$AA@ 1003a348     libusb:windows_usb.obj
 0002:00008358       ??_C@_0O@CIKLALFP@CM_Get_Parent?$AA@ 1003a358     libusb:windows_usb.obj
 0002:00008368       ??_C@_0P@BCJOJJCK@CM_Get_ParentA?$AA@ 1003a368     libusb:windows_usb.obj
 0002:00008378       ??_C@_0P@OAGCMPN@CM_Get_ParentW?$AA@ 1003a378     libusb:windows_usb.obj
 0002:00008388       ??_C@_0N@EKPGFMC@CM_Get_Child?$AA@ 1003a388     libusb:windows_usb.obj
 0002:00008398       ??_C@_0O@JMAMHCLN@CM_Get_ChildA?$AA@ 1003a398     libusb:windows_usb.obj
 0002:000083a8       ??_C@_0O@IAJEMHGK@CM_Get_ChildW?$AA@ 1003a3a8     libusb:windows_usb.obj
 0002:000083b8       ??_C@_0P@OOIACNHP@CM_Get_Sibling?$AA@ 1003a3b8     libusb:windows_usb.obj
 0002:000083c8       ??_C@_0BA@CJDGJCME@CM_Get_SiblingA?$AA@ 1003a3c8     libusb:windows_usb.obj
 0002:000083d8       ??_C@_0BA@DFKOCHBD@CM_Get_SiblingW?$AA@ 1003a3d8     libusb:windows_usb.obj
 0002:000083e8       ??_C@_0BC@JBAJMKLG@CM_Get_Device_IDA?$AA@ 1003a3e8     libusb:windows_usb.obj
 0002:000083fc       ??_C@_0BD@MLPBGBDH@CM_Get_Device_IDAA?$AA@ 1003a3fc     libusb:windows_usb.obj
 0002:00008410       ??_C@_0BD@NHGJNEOA@CM_Get_Device_IDAW?$AA@ 1003a410     libusb:windows_usb.obj
 0002:00008424       ??_C@_0BG@LDEGAGFG@CM_Get_Device_ID_Size?$AA@ 1003a424     libusb:windows_usb.obj
 0002:0000843c       ??_C@_0BH@GLNJMMID@CM_Get_Device_ID_SizeA?$AA@ 1003a43c     libusb:windows_usb.obj
 0002:00008454       ??_C@_0BH@HHEBHJFE@CM_Get_Device_ID_SizeW?$AA@ 1003a454     libusb:windows_usb.obj
 0002:0000846c       ??_C@_09LIBGAJIJ@OLE32?4dll?$AA@ 1003a46c     libusb:windows_usb.obj
 0002:00008478       ??_C@_0BA@OCNJAMDG@CLSIDFromString?$AA@ 1003a478     libusb:windows_usb.obj
 0002:00008488       ??_C@_0BB@CGDKDCNB@CLSIDFromStringA?$AA@ 1003a488     libusb:windows_usb.obj
 0002:0000849c       ??_C@_0BB@DKKCIHAG@CLSIDFromStringW?$AA@ 1003a49c     libusb:windows_usb.obj
 0002:000084b0       ??_C@_0N@PGIHMCBM@SetupAPI?4dll?$AA@ 1003a4b0     libusb:windows_usb.obj
 0002:000084c0       ??_C@_0BF@HMKFIDPO@SetupDiGetClassDevsA?$AA@ 1003a4c0     libusb:windows_usb.obj
 0002:000084d8       ??_C@_0BG@LDBLAENM@SetupDiGetClassDevsAA?$AA@ 1003a4d8     libusb:windows_usb.obj
 0002:000084f0       ??_C@_0BG@KPIDLBAL@SetupDiGetClassDevsAW?$AA@ 1003a4f0     libusb:windows_usb.obj
 0002:00008508       ??_C@_0BH@MCGMLCPH@SetupDiGetClassDevsExA?$AA@ 1003a508     libusb:windows_usb.obj
 0002:00008520       ??_C@_0BI@MKHJHFEJ@SetupDiGetClassDevsExAA?$AA@ 1003a520     libusb:windows_usb.obj
 0002:00008538       ??_C@_0BI@NGOBMAJO@SetupDiGetClassDevsExAW?$AA@ 1003a538     libusb:windows_usb.obj
 0002:00008550       ??_C@_0BG@FHHGAHMJ@SetupDiEnumDeviceInfo?$AA@ 1003a550     libusb:windows_usb.obj
 0002:00008568       ??_C@_0BH@LINHCFH@SetupDiEnumDeviceInfoA?$AA@ 1003a568     libusb:windows_usb.obj
 0002:00008580       ??_C@_0BH@BHBFMHIA@SetupDiEnumDeviceInfoW?$AA@ 1003a580     libusb:windows_usb.obj
 0002:00008598       ??_C@_0BM@NCADCKIN@SetupDiEnumDeviceInterfaces?$AA@ 1003a598     libusb:windows_usb.obj
 0002:000085b4       ??_C@_0BN@HKLJICPD@SetupDiEnumDeviceInterfacesA?$AA@ 1003a5b4     libusb:windows_usb.obj
 0002:000085d4       ??_C@_0BN@GGCBDHCE@SetupDiEnumDeviceInterfacesW?$AA@ 1003a5d4     libusb:windows_usb.obj
 0002:000085f4       ??_C@_0CB@JJMLJEMI@SetupDiGetDeviceInterfaceDetailA@ 1003a5f4     libusb:windows_usb.obj
 0002:00008618       ??_C@_0CC@HMEEPPFC@SetupDiGetDeviceInterfaceDetailA@ 1003a618     libusb:windows_usb.obj
 0002:0000863c       ??_C@_0CC@GANMEKIF@SetupDiGetDeviceInterfaceDetailA@ 1003a63c     libusb:windows_usb.obj
 0002:00008660       ??_C@_0BN@PLKAPGAL@SetupDiDestroyDeviceInfoList?$AA@ 1003a660     libusb:windows_usb.obj
 0002:00008680       ??_C@_0BO@HOELAHDK@SetupDiDestroyDeviceInfoListA?$AA@ 1003a680     libusb:windows_usb.obj
 0002:000086a0       ??_C@_0BO@GCNDLCON@SetupDiDestroyDeviceInfoListW?$AA@ 1003a6a0     libusb:windows_usb.obj
 0002:000086c0       ??_C@_0BF@KHGIADJA@SetupDiOpenDevRegKey?$AA@ 1003a6c0     libusb:windows_usb.obj
 0002:000086d8       ??_C@_0BG@BJMKIFAD@SetupDiOpenDevRegKeyA?$AA@ 1003a6d8     libusb:windows_usb.obj
 0002:000086f0       ??_C@_0BG@FFCDANE@SetupDiOpenDevRegKeyW?$AA@ 1003a6f0     libusb:windows_usb.obj
 0002:00008708       ??_C@_0CC@GLCBFBDA@SetupDiGetDeviceRegistryProperty@ 1003a708     libusb:windows_usb.obj
 0002:0000872c       ??_C@_0CD@MPNAGPLJ@SetupDiGetDeviceRegistryProperty@ 1003a72c     libusb:windows_usb.obj
 0002:00008750       ??_C@_0CD@NDEINKGO@SetupDiGetDeviceRegistryProperty@ 1003a750     libusb:windows_usb.obj
 0002:00008774       ??_C@_0CB@IHIOMJMF@SetupDiOpenDeviceInterfaceRegKey@ 1003a774     libusb:windows_usb.obj
 0002:00008798       ??_C@_0CC@COLMGLC@SetupDiOpenDeviceInterfaceRegKey@ 1003a798     libusb:windows_usb.obj
 0002:000087bc       ??_C@_0CC@BOHDHDGF@SetupDiOpenDeviceInterfaceRegKey@ 1003a7bc     libusb:windows_usb.obj
 0002:000087e0       ??_C@_0N@KKCDEAN@AdvAPI32?4dll?$AA@ 1003a7e0     libusb:windows_usb.obj
 0002:000087f0       ??_C@_0BB@GLNAEDBD@RegQueryValueExW?$AA@ 1003a7f0     libusb:windows_usb.obj
 0002:00008804       ??_C@_0BC@GNLHOPNJ@RegQueryValueExWA?$AA@ 1003a804     libusb:windows_usb.obj
 0002:00008818       ??_C@_0BC@HBCPFKAO@RegQueryValueExWW?$AA@ 1003a818     libusb:windows_usb.obj
 0002:0000882c       ??_C@_0M@HLOHPNFA@RegCloseKey?$AA@ 1003a82c     libusb:windows_usb.obj
 0002:00008838       ??_C@_0N@ICHCMIEN@RegCloseKeyA?$AA@ 1003a838     libusb:windows_usb.obj
 0002:00008848       ??_C@_0N@JOOKHNJK@RegCloseKeyW?$AA@ 1003a848     libusb:windows_usb.obj
 0002:00008858       ??_C@_0L@OKGHKNFP@User32?4dll?$AA@ 1003a858     libusb:windows_usb.obj
 0002:00008864       ??_C@_0BB@ICMOAKKH@RegisterClassExA?$AA@ 1003a864     libusb:windows_usb.obj
 0002:00008878       ??_C@_0BC@KBFCIGAF@RegisterClassExAA?$AA@ 1003a878     libusb:windows_usb.obj
 0002:0000888c       ??_C@_0BC@LNMKDDNC@RegisterClassExAW?$AA@ 1003a88c     libusb:windows_usb.obj
 0002:000088a0       ??_C@_0BM@JAFAJCAJ@RegisterDeviceNotificationA?$AA@ 1003a8a0     libusb:windows_usb.obj
 0002:000088bc       ??_C@_0BN@JACOJGHC@RegisterDeviceNotificationAA?$AA@ 1003a8bc     libusb:windows_usb.obj
 0002:000088dc       ??_C@_0BN@IMLGCDKF@RegisterDeviceNotificationAW?$AA@ 1003a8dc     libusb:windows_usb.obj
 0002:000088fc       ??_C@_0BN@NEFACCFH@UnregisterDeviceNotification?$AA@ 1003a8fc     libusb:windows_usb.obj
 0002:0000891c       ??_C@_0BO@BMLJOKDB@UnregisterDeviceNotificationA?$AA@ 1003a91c     libusb:windows_usb.obj
 0002:0000893c       ??_C@_0BO@CBFPOG@UnregisterDeviceNotificationW?$AA@ 1003a93c     libusb:windows_usb.obj
 0002:0000895c       ??_C@_0BB@PJIOHPJM@UnregisterClassA?$AA@ 1003a95c     libusb:windows_usb.obj
 0002:00008970       ??_C@_0BC@BACCCPFE@UnregisterClassAA?$AA@ 1003a970     libusb:windows_usb.obj
 0002:00008984       ??_C@_0BC@MLKJKID@UnregisterClassAW?$AA@ 1003a984     libusb:windows_usb.obj
 0002:00008998       ??_C@_0DD@GCFHNIOD@could?5not?5obtain?5device?5info?5dat@ 1003a998     libusb:windows_usb.obj
 0002:000089cc       ??_C@_0BK@CLIBBGHO@get_dev_info_data_by_guid?$AA@ 1003a9cc     libusb:windows_usb.obj
 0002:000089e8       ??_C@_0DO@DHOFAHDL@program?5assertion?5failed?3?5dev_in@ 1003a9e8     libusb:windows_usb.obj
 0002:00008a28       ??_C@_0BP@CMOHKFDH@get_dev_info_data_by_device_id?$AA@ 1003aa28     libusb:windows_usb.obj
 0002:00008a48       ??_C@_0DB@OAMMCJJK@could?5not?5obtain?5interface?5data?5@ 1003aa48     libusb:windows_usb.obj
 0002:00008a7c       ??_C@_0BM@NJHOBDAD@get_interface_detail_actual?$AA@ 1003aa7c     libusb:windows_usb.obj
 0002:00008a98       ??_C@_0DJ@PALJCAOK@could?5not?5access?5interface?5data?5@ 1003aa98     libusb:windows_usb.obj
 0002:00008ad8       ??_C@_0FJ@BKDOFMMB@program?5assertion?5failed?3?5http?3?1@ 1003aad8     libusb:windows_usb.obj
 0002:00008b34       ??_C@_0CP@FHPOICIJ@could?5not?5allocate?5interface?5dat@ 1003ab34     libusb:windows_usb.obj
 0002:00008b64       ??_C@_0DK@KPDIBJAB@could?5not?5access?5interface?5data?5@ 1003ab64     libusb:windows_usb.obj
 0002:00008ba0       ??_C@_1M@HJLGEOGO@?$AAL?$AAU?$AAs?$AAb?$AA0?$AA?$AA@ 1003aba0     libusb:windows_usb.obj
 0002:00008bac       ??_C@_0BB@EEAOPJCC@?2?2?4?2libusb0?9?$CF04d?$AA@ 1003abac     libusb:windows_usb.obj
 0002:00008bc0       ??_C@_0CC@IECABNCJ@assigned?5libusb0?5symbolic?5link?5?$CF@ 1003abc0     libusb:windows_usb.obj
 0002:00008be4       ??_C@_0BN@JIMNFDBG@get_interface_details_filter?$AA@ 1003abe4     libusb:windows_usb.obj
 0002:00008c04       ??_C@_0DI@NNEAJIKD@program?5assertion?5failed?3?5invali@ 1003ac04     libusb:windows_usb.obj
 0002:00008c3c       ??_C@_0BM@CLPHMOJD@parse_device_interface_path?$AA@ 1003ac3c     libusb:windows_usb.obj
 0002:00008c58       ??_C@_0BN@GNLFLLBD@hash?5table?5already?5allocated?$AA@ 1003ac58     libusb:windows_usb.obj
 0002:00008c78       ??_C@_0M@EBLHOIJG@htab_create?$AA@ 1003ac78     libusb:windows_usb.obj
 0002:00008c84       ??_C@_0BM@NHHMPDAH@using?5?$CFd?5entries?5hash?5table?$AA@ 1003ac84     libusb:windows_usb.obj
 0002:00008ca0       ??_C@_0CI@EGJHNPKG@could?5not?5allocate?5space?5for?5has@ 1003aca0     libusb:windows_usb.obj
 0002:00008cc8       ??_C@_06CBHGEMFM@?$DMNULL?$DO?$AA@ 1003acc8     libusb:windows_usb.obj
 0002:00008cd0       ??_C@_0BO@POHOIFJK@hash?5collision?5?$CI?8?$CFs?8?5vs?5?8?$CFs?8?$CJ?$AA@ 1003acd0     libusb:windows_usb.obj
 0002:00008cf0       ??_C@_09FPPBJNFD@htab_hash?$AA@ 1003acf0     libusb:windows_usb.obj
 0002:00008cfc       ??_C@_0CA@KLPGILOD@hash?5table?5is?5full?5?$CI?$CFd?5entries?$CJ?$AA@ 1003acfc     libusb:windows_usb.obj
 0002:00008d1c       ??_C@_0CK@OIPNMJGO@could?5not?5duplicate?5string?5for?5h@ 1003ad1c     libusb:windows_usb.obj
 0002:00008d48       ??_C@_0DJ@GIOGGMDE@could?5not?5retrieve?5device?5id?5siz@ 1003ad48     libusb:windows_usb.obj
 0002:00008d84       ??_C@_0O@KICAGMAE@get_device_id?$AA@ 1003ad84     libusb:windows_usb.obj
 0002:00008d94       ??_C@_0DE@IHJODEOJ@failed?5to?5allocate?5device?5id?5for@ 1003ad94     libusb:windows_usb.obj
 0002:00008dc8       ??_C@_0DE@FNJDDJAB@could?5not?5retrieve?5device?5id?5for@ 1003adc8     libusb:windows_usb.obj
 0002:00008dfc       ??_C@_0CL@OCAJOBLO@could?5not?5read?5config?5descriptor@ 1003adfc     libusb:windows_usb.obj
 0002:00008e28       ??_C@_0BJ@NINOCJKM@windows_assign_endpoints?$AA@ 1003ae28     libusb:windows_usb.obj
 0002:00008e44       ??_C@_0CE@MAHJHPBP@no?5endpoints?5found?5for?5interface@ 1003ae44     libusb:windows_usb.obj
 0002:00008e68       ??_C@_0CL@DHAKLFFE@?$CIre?$CJassigned?5endpoint?5?$CF02X?5to?5in@ 1003ae68     libusb:windows_usb.obj
 0002:00008e94       ??_C@_0CO@NKOKOACK@auto?9claimed?5interface?5?$CFd?5for?5co@ 1003ae94     libusb:windows_usb.obj
 0002:00008ec4       ??_C@_0L@KCDGGCDM@auto_claim?$AA@ 1003aec4     libusb:windows_usb.obj
 0002:00008ed0       ??_C@_0DH@LELFNJCP@program?5assertion?5failed?5?9?5autoc@ 1003aed0     libusb:windows_usb.obj
 0002:00008f08       ??_C@_0CD@MGJDIKLC@could?5not?5auto?9claim?5any?5interfa@ 1003af08     libusb:windows_usb.obj
 0002:00008f2c       ??_C@_0BL@NMCECEOM@auto?9released?5interface?5?$CFd?$AA@ 1003af2c     libusb:windows_usb.obj
 0002:00008f48       ??_C@_0N@IIEDKHFH@auto_release?$AA@ 1003af48     libusb:windows_usb.obj
 0002:00008f58       ??_C@_0CJ@HDEJEPCF@failed?5to?5auto?9release?5interface@ 1003af58     libusb:windows_usb.obj
 0002:00008f84       ??_C@_0N@HAOHNMDE@Kernel32?4dll?$AA@ 1003af84     libusb:windows_usb.obj
 0002:00008f94       ??_C@_0P@LKABJJMO@IsWow64Process?$AA@ 1003af94     libusb:windows_usb.obj
 0002:00008fa4       ??_C@_0BA@JFAEJAGK@IsWow64ProcessA?$AA@ 1003afa4     libusb:windows_usb.obj
 0002:00008fb4       ??_C@_0BA@IJJMCFLN@IsWow64ProcessW?$AA@ 1003afb4     libusb:windows_usb.obj
 0002:00008fc4       ??_C@_06OOBBGFDJ@32?5bit?$AA@ 1003afc4     libusb:windows_usb.obj
 0002:00008fcc       ??_C@_04OJDKMIMG@2000?$AA@ 1003afcc     libusb:windows_usb.obj
 0002:00008fd4       ??_C@_02NIKKAELB@XP?$AA@   1003afd4     libusb:windows_usb.obj
 0002:00008fd8       ??_C@_04MCBHJLAF@2003?$AA@ 1003afd8     libusb:windows_usb.obj
 0002:00008fe0       ??_C@_05FGFMDFJC@Vista?$AA@ 1003afe0     libusb:windows_usb.obj
 0002:00008fe8       ??_C@_04CBODECMO@2008?$AA@ 1003afe8     libusb:windows_usb.obj
 0002:00008ff0       ??_C@_01COCBENDE@7?$AA@    1003aff0     libusb:windows_usb.obj
 0002:00008ff4       ??_C@_07HBFLJEHF@2008_R2?$AA@ 1003aff4     libusb:windows_usb.obj
 0002:00008ffc       ??_C@_01KJLJFBPL@8?$AA@    1003affc     libusb:windows_usb.obj
 0002:00009000       ??_C@_04NKMOMAHD@2012?$AA@ 1003b000     libusb:windows_usb.obj
 0002:00009008       ??_C@_03BPKKJMPF@8?41?$AA@ 1003b008     libusb:windows_usb.obj
 0002:0000900c       ??_C@_07PALHFPHB@2012_R2?$AA@ 1003b00c     libusb:windows_usb.obj
 0002:00009014       ??_C@_03DEIHMPDG@8?42?$AA@ 1003b014     libusb:windows_usb.obj
 0002:00009018       ??_C@_07OJKMGODA@2012_R3?$AA@ 1003b018     libusb:windows_usb.obj
 0002:00009020       ??_C@_0L@EGDMGNPG@9?5or?5later?$AA@ 1003b020     libusb:windows_usb.obj
 0002:0000902c       ??_C@_06JCOAGNDC@64?9bit?$AA@ 1003b02c     libusb:windows_usb.obj
 0002:00009034       ??_C@_02KEGNBOHH@NT?$AA@   1003b034     libusb:windows_usb.obj
 0002:00009038       ??_C@_02HHFHKOHM@?$DP?$DP?$AA@ 1003b038     libusb:windows_usb.obj
 0002:0000903c       ??_C@_0M@GDIEECLJ@?$CFs?5?$CFu?4?$CFu?5?$CFs?$AA@ 1003b03c     libusb:windows_usb.obj
 0002:00009048       ??_C@_0O@GPGFIGLB@?$CFs?5SP?$CFu?4?$CFu?5?$CFs?$AA@ 1003b048     libusb:windows_usb.obj
 0002:00009058       ??_C@_0L@PILFDGBG@?$CFs?5SP?$CFu?5?$CFs?$AA@ 1003b058     libusb:windows_usb.obj
 0002:00009064       ??_C@_05DNIIFBMG@?$CFs?5?$CFs?$AA@ 1003b064     libusb:windows_usb.obj
 0002:0000906c       ??_C@_0DL@NEICJCJG@could?5not?5detect?5installation?5st@ 1003b06c     libusb:windows_usb.obj
 0002:000090a8       ??_C@_0BK@EANHABMA@get_device_port_and_state?$AA@ 1003b0a8     libusb:windows_usb.obj
 0002:000090c8       ??_C@_0ED@FCOBFGGP@driver?5for?5device?5?8?$CFs?8?5is?5report@ 1003b0c8     libusb:windows_usb.obj
 0002:0000910c       ??_C@_0DN@EOEAIFEO@could?5not?5retrieve?5port?5number?5f@ 1003b10c     libusb:windows_usb.obj
 0002:0000914c       ??_C@_0CF@COKDIEDO@device?5found?5in?5session?5?$FL?$CFX?$FN?5?$CI?$CFd@ 1003b14c     libusb:windows_usb.obj
 0002:00009174       ??_C@_0BJ@LGLNMEDC@windows_enumerate_device?$AA@ 1003b174     libusb:windows_usb.obj
 0002:00009190       ??_C@_0BG@CBGNFLB@device?5?8?$CFs?8?5not?5found?$AA@ 1003b190     libusb:windows_usb.obj
 0002:000091a8       ??_C@_0CA@JKIKHOOK@device?5?8?$CFs?8?5not?5in?5a?5good?5state?$AA@ 1003b1a8     libusb:windows_usb.obj
 0002:000091c8       ??_C@_0CI@OBGDJLMC@could?5not?5get?5parent?5device?5id?5f@ 1003b1c8     libusb:windows_usb.obj
 0002:000091f0       ??_C@_0CL@NGJBHNIL@parent?5for?5?8?$CFs?8?5not?5found?0?5enume@ 1003b1f0     libusb:windows_usb.obj
 0002:0000921c       ??_C@_0DB@IPFIIHDK@?8?$CFs?8?5GUID?5is?5a?5DEVICE?0?5parent?5GU@ 1003b21c     libusb:windows_usb.obj
 0002:00009250       ??_C@_0CO@FFFNAOPB@?8?$CFs?8?5GUID?5is?5a?5HUB?0?5parent?5GUID?5@ 1003b250     libusb:windows_usb.obj
 0002:00009280       ??_C@_0CI@PCLEKJEI@program?5assertion?5failed?5?9?5unkno@ 1003b280     libusb:windows_usb.obj
 0002:000092a8       ??_C@_0CJ@KAOJPLFI@unable?5to?5enumerate?5parent?5?8?$CFs?8?5@ 1003b2a8     libusb:windows_usb.obj
 0002:000092d4       ??_C@_07PEIIDCFA@PRO?3?5?$CFs?$AA@ 1003b2d4     libusb:windows_usb.obj
 0002:000092dc       ??_C@_0CH@DOCEKDG@allocating?5new?5device?5for?5sessio@ 1003b2dc     libusb:windows_usb.obj
 0002:00009304       ??_C@_0CH@HNMKMOGA@failed?5to?5allocate?5new?5device?5fo@ 1003b304     libusb:windows_usb.obj
 0002:0000932c       ??_C@_0CI@LFABCDEO@could?5not?5get?5interface?5detail?5f@ 1003b32c     libusb:windows_usb.obj
 0002:00009354       ??_C@_0CN@FGIHFHGI@failed?5to?5allocate?5device?5id?5str@ 1003b354     libusb:windows_usb.obj
 0002:00009384       ??_C@_0CL@OBKFODPL@failed?5to?5allocate?5interface?5pat@ 1003b384     libusb:windows_usb.obj
 0002:000093b0       ??_C@_0BP@MLKENIGO@failed?5allocating?5hid?5for?5?8?$CFs?8?$AA@ 1003b3b0     libusb:windows_usb.obj
 0002:000093d0       ??_C@_0CM@MHNGLJBJ@could?5not?5duplicate?5interface?5pa@ 1003b3d0     libusb:windows_usb.obj
 0002:000093fc       ??_C@_0CB@BNLKJNAI@failed?5to?5initialize?5device?5?8?$CFs?8@ 1003b3fc     libusb:windows_usb.obj
 0002:00009420       ??_C@_0CI@JGBEBLIP@failed?5to?5enumerate?5interfaces?5f@ 1003b420     libusb:windows_usb.obj
 0002:00009448       ??_C@_0CB@CIDENNPG@device?5disconnected?5?$FL?$CFX?$FN?5?$CI?$CFd?4?$CFd?$CJ@ 1003b448     libusb:windows_usb.obj
 0002:0000946c       ??_C@_0BL@KHIOIHKE@windows_hotplug_disconnect?$AA@ 1003b46c     libusb:windows_usb.obj
 0002:00009488       ??_C@_0CC@EFILBCEH@device?5not?5found?5for?5session?5?$FL?$CFX@ 1003b488     libusb:windows_usb.obj
 0002:000094ac       ??_C@_03IONNGCBN@USB?$AA@  1003b4ac     libusb:windows_usb.obj
 0002:000094b0       ??_C@_05MIFENJJB@IUSB3?$AA@ 1003b4b0     libusb:windows_usb.obj
 0002:000094b8       ??_C@_05NFFBOJCJ@NUSB3?$AA@ 1003b4b8     libusb:windows_usb.obj
 0002:000094c0       ??_C@_03GLEFGMHP@HID?$AA@  1003b4c0     libusb:windows_usb.obj
 0002:000094c4       ??_C@_0CC@BJEMJDEH@ignoring?5WM_DEVICECHANGE?5event?5?$CF@ 1003b4c4     libusb:windows_usb.obj
 0002:000094e8       ??_C@_0CG@CKLKKAPM@message_callback_handle_device_c@ 1003b4e8     libusb:windows_usb.obj
 0002:00009510       ??_C@_0CL@PAADENKI@could?5not?5parse?5device?5interface@ 1003b510     libusb:windows_usb.obj
 0002:0000953c       ??_C@_09KGBNNNJO@CONNECTED?$AA@ 1003b53c     libusb:windows_usb.obj
 0002:00009548       ??_C@_0N@HLEBDOBD@DISCONNECTED?$AA@ 1003b548     libusb:windows_usb.obj
 0002:00009558       ??_C@_0N@IOMHOGHN@PRO?3?5?$CFs?5?$CI?$CFs?$CJ?$AA@ 1003b558     libusb:windows_usb.obj
 0002:00009568       ??_C@_0BA@GHNNCPOO@IFC?3?5?$CFs?5?$CFs?5?$CI?$CFs?$CJ?$AA@ 1003b568     libusb:windows_usb.obj
 0002:00009578       ??_C@_0CK@LENOOMJB@could?5not?5get?5parent?5instance?5id@ 1003b578     libusb:windows_usb.obj
 0002:000095a4       ??_C@_0BD@KALJGLHK@parent?5device?5?8?$CFs?8?$AA@ 1003b5a4     libusb:windows_usb.obj
 0002:000095b8       ??_C@_0CL@KFJIJGPE@failed?5to?5sanitize?5interface?5pat@ 1003b5b8     libusb:windows_usb.obj
 0002:000095e4       ??_C@_0CL@BLBJLDFG@failed?5to?5set?5composite?5interfac@ 1003b5e4     libusb:windows_usb.obj
 0002:00009610       ??_C@_0CD@GFLDHPNE@unsupported?5API?5for?5interface?5?8?$CF@ 1003b610     libusb:windows_usb.obj
 0002:00009634       ??_C@_0CF@OAABJOFC@failed?5to?5set?5hid?5interface?5for?5@ 1003b634     libusb:windows_usb.obj
 0002:0000965c       ??_C@_0BH@BPHPKJCN@libusb_messaging_class?$AA@ 1003b65c     libusb:windows_usb.obj
 0002:00009674       ??_C@_0CP@NIBFANLN@can?8t?5register?5hotplug?5message?5w@ 1003b674     libusb:windows_usb.obj
 0002:000096a4       ??_C@_0BJ@MDFMMLHD@windows_hotplug_threaded?$AA@ 1003b6a4     libusb:windows_usb.obj
 0002:000096c0       ??_C@_0CM@IPBEFGNK@unable?5to?5create?5hotplug?5message@ 1003b6c0     libusb:windows_usb.obj
 0002:000096ec       ??_C@_0DJ@GHCDJJNP@failed?5to?5register?5for?5device?5in@ 1003b6ec     libusb:windows_usb.obj
 0002:00009728       ??_C@_0CE@FNOHCMOB@hotplug?5thread?5waiting?5for?5messa@ 1003b728     libusb:windows_usb.obj
 0002:0000974c       ??_C@_0BF@IAMFGLMB@GetMessage?5error?3?5?$CFs?$AA@ 1003b74c     libusb:windows_usb.obj
 0002:00009764       ??_C@_0BI@HIKIFKH@hotplug?5thread?5quitting?$AA@ 1003b764     libusb:windows_usb.obj
 0002:0000977c       ??_C@_0DC@ONFBAOPN@?6?$CD?$CD?$CD?$CD?$CD?$CD?$CD?$CD?$CD?$CD?$CD?$CD?$CD?$CD?$CD?$CD?$CD?$CD?5HUB?5pass?5?$CD?$CD?$CD@ 1003b77c     libusb:windows_usb.obj
 0002:000097b0       ??_C@_0BF@MGDLLICL@windows_scan_devices?$AA@ 1003b7b0     libusb:windows_usb.obj
 0002:000097c8       ??_C@_0DC@LPOEDEHN@?6?$CD?$CD?$CD?$CD?$CD?$CD?$CD?$CD?$CD?$CD?$CD?$CD?$CD?$CD?$CD?$CD?$CD?$CD?5DEV?5pass?5?$CD?$CD?$CD@ 1003b7c8     libusb:windows_usb.obj
 0002:000097fc       ??_C@_0BA@HKFMGFHE@libusb_init?$CF08X?$AA@ 1003b7fc     libusb:windows_usb.obj
 0002:0000980c       ??_C@_0BP@MGLDCAPO@could?5not?5create?5semaphore?3?5?$CFs?$AA@ 1003b80c     libusb:windows_usb.obj
 0002:0000982c       ??_C@_0N@BOMAPDDF@windows_init?$AA@ 1003b82c     libusb:windows_usb.obj
 0002:0000983c       ??_C@_0CA@IPBDNDEI@failure?5to?5access?5semaphore?3?5?$CFs?$AA@ 1003b83c     libusb:windows_usb.obj
 0002:0000985c       ??_C@_0CJ@PAMBHEBA@This?5version?5of?5Windows?5is?5NOT?5s@ 1003b85c     libusb:windows_usb.obj
 0002:00009888       ??_C@_0CA@KLMJHFKH@could?5not?5resolve?5DLL?5functions?$AA@ 1003b888     libusb:windows_usb.obj
 0002:000098a8       ??_C@_0DD@KAGJKODJ@could?5not?5create?5timer?5request?5e@ 1003b8a8     libusb:windows_usb.obj
 0002:000098dc       ??_C@_0DF@FNPJGAJB@could?5not?5create?5timer?5response?5@ 1003b8dc     libusb:windows_usb.obj
 0002:00009914       ??_C@_0CI@LOIHLOAL@could?5not?5create?5timer?5mutex?5?9?5a@ 1003b914     libusb:windows_usb.obj
 0002:0000993c       ??_C@_0CJ@IONFDLGO@Unable?5to?5create?5timer?5thread?5?9?5@ 1003b93c     libusb:windows_usb.obj
 0002:00009968       ??_C@_0DL@JMFPIGCF@Failed?5to?5wait?5for?5timer?5thread?5@ 1003b968     libusb:windows_usb.obj
 0002:000099a4       ??_C@_0DH@EKOFGMIN@could?5not?5create?5hotplug?5respons@ 1003b9a4     libusb:windows_usb.obj
 0002:000099dc       ??_C@_0CL@MJFEBDJN@Unable?5to?5create?5hotplug?5thread?5@ 1003b9dc     libusb:windows_usb.obj
 0002:00009a08       ??_C@_0DN@DOAICPH@failed?5to?5wait?5for?5hotplug?5threa@ 1003ba08     libusb:windows_usb.obj
 0002:00009a48       ??_C@_0CE@FLOCFPOA@hotplug?5thread?5not?5ready?5?9?5abort@ 1003ba48     libusb:windows_usb.obj
 0002:00009a6c       ??_C@_0CI@NOCPDLBH@could?5not?5wait?5for?5timer?5thread?5@ 1003ba6c     libusb:windows_usb.obj
 0002:00009a94       ??_C@_0CK@HLLPHIMG@could?5not?5wait?5for?5hotplug?5threa@ 1003ba94     libusb:windows_usb.obj
 0002:00009ac0       ??_C@_0DP@GGGKNGPE@could?5not?5retrieve?5host?5controll@ 1003bac0     libusb:windows_usb.obj
 0002:00009b00       ??_C@_0BM@BBILLAIB@force_hcd_device_descriptor?$AA@ 1003bb00     libusb:windows_usb.obj
 0002:00009b1c       ??_C@_0DE@ONBJLALB@program?5assertion?5failed?3?5too?5ma@ 1003bb1c     libusb:windows_usb.obj
 0002:00009b50       ??_C@_0CP@EGGNIOIC@failed?5to?5assign?5bus?5number?5to?5h@ 1003bb50     libusb:windows_usb.obj
 0002:00009b80       ??_C@_0BJ@LMJNJMGO@PCI?2VEN_?$CF04x?$CGDEV_?$CF04x?$CF?$CKs?$AA@ 1003bb80     libusb:windows_usb.obj
 0002:00009b9c       ??_C@_0DC@EGMJCLOD@could?5not?5infer?5VID?1PID?5of?5HCD?5r@ 1003bb9c     libusb:windows_usb.obj
 0002:00009bd0       ??_C@_0DP@MEOALHBB@could?5not?5access?5configuration?5d@ 1003bbd0     libusb:windows_usb.obj
 0002:00009c10       ??_C@_0BJ@HLJFDJKK@cache_config_descriptors?$AA@ 1003bc10     libusb:windows_usb.obj
 0002:00009c2c       ??_C@_0DL@OANDBNCO@unexpected?5configuration?5descrip@ 1003bc2c     libusb:windows_usb.obj
 0002:00009c68       ??_C@_0DN@BEFNPDMP@could?5not?5allocate?5configuration@ 1003bc68     libusb:windows_usb.obj
 0002:00009ca8       ??_C@_0EA@GOMCODBC@could?5not?5access?5configuration?5d@ 1003bca8     libusb:windows_usb.obj
 0002:00009ce8       ??_C@_0DM@KHBPGOPI@unexpected?5configuration?5descrip@ 1003bce8     libusb:windows_usb.obj
 0002:00009d24       ??_C@_0CI@BMNMCMHC@not?5a?5configuration?5descriptor?5f@ 1003bd24     libusb:windows_usb.obj
 0002:00009d4c       ??_C@_0DP@FLFHBMKC@cached?5config?5descriptor?5?$CFd?5?$CIbCo@ 1003bd4c     libusb:windows_usb.obj
 0002:00009d8c       ??_C@_0M@HKKPDPFM@init_device?$AA@ 1003bd8c     libusb:windows_usb.obj
 0002:00009d98       ??_C@_0DJ@MKLOBEKP@program?5assertion?5failed?3?5device@ 1003bd98     libusb:windows_usb.obj
 0002:00009dd8       ??_C@_0EK@ELNLGGF@program?5assertion?5failed?3?5unable@ 1003bdd8     libusb:windows_usb.obj
 0002:00009e24       ??_C@_0CE@BKOGIHKE@parent?5for?5device?5?8?$CFs?8?5is?5not?5a?5@ 1003be24     libusb:windows_usb.obj
 0002:00009e48       ??_C@_0EE@BAGNAEFM@program?5assertion?5failed?3?5parent@ 1003be48     libusb:windows_usb.obj
 0002:00009e8c       ??_C@_0BM@HACFBFHL@could?5not?5open?5hub?5?8?$CFs?8?3?5?$CFs?$AA@ 1003be8c     libusb:windows_usb.obj
 0002:00009ea8       ??_C@_0DO@HBGLCLEH@could?5not?5get?5node?5connection?5in@ 1003bea8     libusb:windows_usb.obj
 0002:00009ee8       ??_C@_0CE@POMMIHCP@device?5?8?$CFs?8?5is?5no?5longer?5connect@ 1003bee8     libusb:windows_usb.obj
 0002:00009f0c       ??_C@_0CM@BGILHBNO@found?5?$CFd?5configuration?$CIs?$CJ?5?$CIactiv@ 1003bf0c     libusb:windows_usb.obj
 0002:00009f38       ??_C@_0ED@EEPPGHMI@could?5not?5get?5node?5connection?5in@ 1003bf38     libusb:windows_usb.obj
 0002:00009f7c       ??_C@_0DC@KGGFOFJI@program?5assertion?5failed?3?5device@ 1003bf7c     libusb:windows_usb.obj
 0002:00009fb0       ??_C@_0EB@BLEPIIGO@program?5assertion?5failed?3?5device@ 1003bfb0     libusb:windows_usb.obj
 0002:00009ff4       ??_C@_0BM@CEHBOPNA@Got?5unknown?5device?5speed?5?$CFd?$AA@ 1003bff4     libusb:windows_usb.obj
 0002:0000a010       ??_C@_0CP@LOFCMBDB@?$CIbus?3?5?$CFd?0?5addr?3?5?$CFd?0?5depth?3?5?$CFd?0?5p@ 1003c010     libusb:windows_usb.obj
 0002:0000a040       ??_C@_02LOCGON@?$AA?$AA?$AA@ 1003c040     libusb:windows_usb.obj
 0002:0000a044       ??_C@_06NCODBMHO@driver?$AA@ 1003c044     libusb:windows_usb.obj
 0002:0000a04c       ??_C@_0BE@MMMLKHFC@upper?5filter?5driver?$AA@ 1003c04c     libusb:windows_usb.obj
 0002:0000a060       ??_C@_0BE@GFECEGCD@lower?5filter?5driver?$AA@ 1003c060     libusb:windows_usb.obj
 0002:0000a074       ??_C@_09NKKIOGIB@?$CFs?$CIs?$CJ?3?5?$CFs?$AA@ 1003c074     libusb:windows_usb.obj
 0002:0000a080       ??_C@_0N@GHLOGLBP@get_api_type?$AA@ 1003c080     libusb:windows_usb.obj
 0002:0000a090       ??_C@_0BI@EGHABKMI@could?5not?5access?5?$CFs?3?5?$CFs?$AA@ 1003c090     libusb:windows_usb.obj
 0002:0000a0a8       ??_C@_0BL@PGFEOBDM@matched?5?$CFs?5name?5against?5?$CFs?$AA@ 1003c0a8     libusb:windows_usb.obj
 0002:0000a0c4       ??_C@_0DE@PCENCCKL@program?5assertion?5failed?3?5?8?$CFs?8?5i@ 1003c0c4     libusb:windows_usb.obj
 0002:0000a0f8       ??_C@_0BM@HGFIMEPD@enumerate_device_interfaces?$AA@ 1003c0f8     libusb:windows_usb.obj
 0002:0000a114       ??_C@_0CK@CGJFJCBD@program?5assertion?5failed?3?5?8?$CFs?8?5i@ 1003c114     libusb:windows_usb.obj
 0002:0000a140       ??_C@_0DD@PBMFCECG@could?5not?5find?5child?5for?5composi@ 1003c140     libusb:windows_usb.obj
 0002:0000a174       ??_C@_0DB@FGOJFIDG@failed?5to?5get?5device?5instance?5id@ 1003c174     libusb:windows_usb.obj
 0002:0000a1a8       ??_C@_1CK@JOLAJLE@?$AAD?$AAe?$AAv?$AAi?$AAc?$AAe?$AAI?$AAn?$AAt?$AAe?$AAr?$AAf?$AAa?$AAc?$AAe?$AAG?$AAU?$AAI?$AAD?$AAs?$AA?$AA@ 1003c1a8     libusb:windows_usb.obj
 0002:0000a1d4       ??_C@_0CJ@FJKGKACM@failed?5to?5allocate?5device?5interf@ 1003c1d4     libusb:windows_usb.obj
 0002:0000a200       ??_C@_0BL@FDIAJNPI@?8?$CFs?8?5has?5interface?5GUID?5?$CFs?$AA@ 1003c200     libusb:windows_usb.obj
 0002:0000a21c       ??_C@_0DA@KKILKGIL@program?5assertion?5failed?3?5?8?$CFs?8?5i@ 1003c21c     libusb:windows_usb.obj
 0002:0000a24c       ??_C@_0BI@MJJJKKOG@set_composite_interface?$AA@ 1003c24c     libusb:windows_usb.obj
 0002:0000a268       ??_C@_0EA@OPONOKFL@failure?5to?5read?5interface?5number@ 1003c268     libusb:windows_usb.obj
 0002:0000a2a8       ??_C@_0DM@PBBGLOGC@program?5assertion?5failed?3?5max?5US@ 1003c2a8     libusb:windows_usb.obj
 0002:0000a2e4       ??_C@_0DI@LKOKMMDM@interface?$FL?$CFd?$FN?5already?5set?5?9?5igno@ 1003c2e4     libusb:windows_usb.obj
 0002:0000a31c       ??_C@_0BD@BGBPJOBK@interface?$FL?$CFd?$FN?5?$DN?5?$CFs?$AA@ 1003c31c     libusb:windows_usb.obj
 0002:0000a330       ??_C@_0CM@NLFCFLJL@program?5assertion?5failed?3?5parent@ 1003c330     libusb:windows_usb.obj
 0002:0000a35c       ??_C@_0BC@NCCJPIGJ@set_hid_interface?$AA@ 1003c35c     libusb:windows_usb.obj
 0002:0000a370       ??_C@_0EE@DPAKBKFE@program?5assertion?5failed?3?5max?5US@ 1003c370     libusb:windows_usb.obj
 0002:0000a3b4       ??_C@_0CA@BCAEGLMP@interface?$FL?$CFd?$FN?5already?5set?5to?5?$CFs?$AA@ 1003c3b4     libusb:windows_usb.obj
 0002:0000a3d4       ??_C@_0BK@KFLDEIGD@unset_composite_interface?$AA@ 1003c3d4     libusb:windows_usb.obj
 0002:0000a3f0       ??_C@_0BM@DGALPEHG@removing?5interface?$FL?$CFd?$FN?5?$DN?5?$CFs?$AA@ 1003c3f0     libusb:windows_usb.obj
 0002:0000a40c       ??_C@_0BE@KBFOKLCE@unset_hid_interface?$AA@ 1003c40c     libusb:windows_usb.obj
 0002:0000a420       ??_C@_0DF@MPKKMECA@program?5assertion?5failed?3?5hid?5in@ 1003c420     libusb:windows_usb.obj
 0002:0000a458       ??_C@_0N@KOECBGHH@windows_exit?$AA@ 1003c458     libusb:windows_usb.obj
 0002:0000a468       ??_C@_0DF@KGBLDDL@program?5assertion?5failed?5?9?5devic@ 1003c468     libusb:windows_usb.obj
 0002:0000a4a0       ??_C@_0N@JIHBCFIG@windows_open?$AA@ 1003c4a0     libusb:windows_usb.obj
 0002:0000a4b0       ??_C@_0BJ@DBCGFFPA@unknown?5endpoint?5type?5?$CFd?$AA@ 1003c4b0     libusb:windows_usb.obj
 0002:0000a4cc       ??_C@_0BI@JLCIHNFE@windows_submit_transfer?$AA@ 1003c4cc     libusb:windows_usb.obj
 0002:0000a4e4       ??_C@_0BI@HCDNEMHE@windows_cancel_transfer?$AA@ 1003c4e4     libusb:windows_usb.obj
 0002:0000a4fc       ??_C@_0DB@IMDACPMC@handling?5I?1O?5completion?5with?5err@ 1003c4fc     libusb:windows_usb.obj
 0002:0000a530       ??_C@_0BK@DOHDNJGC@windows_transfer_callback?$AA@ 1003c530     libusb:windows_usb.obj
 0002:0000a54c       ??_C@_0BI@OGILNLHB@detected?5endpoint?5stall?$AA@ 1003c54c     libusb:windows_usb.obj
 0002:0000a564       ??_C@_0BL@NKEBJCMI@detected?5semaphore?5timeout?$AA@ 1003c564     libusb:windows_usb.obj
 0002:0000a580       ??_C@_0DF@EKOINGMD@Failed?5to?5copy?5partial?5data?5in?5a@ 1003c580     libusb:windows_usb.obj
 0002:0000a5b8       ??_C@_0BB@LHBAODKI@detected?5timeout?$AA@ 1003c5b8     libusb:windows_usb.obj
 0002:0000a5cc       ??_C@_0BL@PCPPFNCB@detected?5operation?5aborted?$AA@ 1003c5cc     libusb:windows_usb.obj
 0002:0000a5e8       ??_C@_0BK@FPKCFFCP@detected?5I?1O?5error?5?$CFd?3?5?$CFs?$AA@ 1003c5e8     libusb:windows_usb.obj
 0002:0000a604       ??_C@_0DN@HOGMPFP@bulk?5stream?5transfers?5are?5not?5ye@ 1003c604     libusb:windows_usb.obj
 0002:0000a644       ??_C@_0BI@PKCBOPBP@windows_handle_callback?$AA@ 1003c644     libusb:windows_usb.obj
 0002:0000a65c       ??_C@_0CD@JIPENCCG@checking?5fd?5?$CFd?5with?5revents?5?$DN?5?$CF0@ 1003c65c     libusb:windows_usb.obj
 0002:0000a680       ??_C@_0BG@IIPKNAG@windows_handle_events?$AA@ 1003c680     libusb:windows_usb.obj
 0002:0000a698       ??_C@_0CN@DGJKEHDH@could?5not?5find?5a?5matching?5transf@ 1003c698     libusb:windows_usb.obj
 0002:0000a6c8       ??_C@_0CK@PIOPGCOL@no?5hires?5timer?5available?5on?5this@ 1003c6c8     libusb:windows_usb.obj
 0002:0000a6f4       ??_C@_0BP@LNFKNCIM@windows_clock_gettime_threaded?$AA@ 1003c6f4     libusb:windows_usb.obj
 0002:0000a714       ??_C@_0CM@HPIFEGEN@hires?5timer?5available?5?$CIFrequency@ 1003c714     libusb:windows_usb.obj
 0002:0000a740       ??_C@_0CG@MKDCCMNL@unable?5to?5release?5timer?5semaphor@ 1003c740     libusb:windows_usb.obj
 0002:0000a768       ??_C@_0CA@ILCJEKAK@failure?5to?5wait?5on?5requests?3?5?$CFs?$AA@ 1003c768     libusb:windows_usb.obj
 0002:0000a788       ??_C@_0BG@DKPKKNIB@timer?5thread?5quitting?$AA@ 1003c788     libusb:windows_usb.obj
 0002:0000a7a0       ??_C@_0EM@FAMGOIAF@could?5not?5obtain?5a?5timer?5value?5w@ 1003c7a0     libusb:windows_usb.obj
 0002:0000a7ec       ??_C@_0BG@DPBOLMCM@windows_clock_gettime?$AA@ 1003c7ec     libusb:windows_usb.obj
 0002:0000a804       ??_C@_0BP@BCJIKCAP@WaitForSingleObject?5failed?3?5?$CFs?$AA@ 1003c804     libusb:windows_usb.obj
 0002:0000a824       ??_C@_07LDLFNPGN@Windows?$AA@ 1003c824     libusb:windows_usb.obj
 0002:0000a82c       ??_C@_0DN@FCHBAJOL@unsupported?5API?5call?5for?5?8open?8?5@ 1003c82c     libusb:windows_usb.obj
 0002:0000a86c       ??_C@_0BB@BLFABBHH@unsupported_open?$AA@ 1003c86c     libusb:windows_usb.obj
 0002:0000a880       ??_C@_0CB@LGEGDAPP@unsupported?5API?5call?5for?5?8close?8@ 1003c880     libusb:windows_usb.obj
 0002:0000a8a4       ??_C@_0BC@HPGBEBND@unsupported_close?$AA@ 1003c8a4     libusb:windows_usb.obj
 0002:0000a8b8       ??_C@_0EM@BGDHDGMA@unsupported?5API?5call?5for?5?8config@ 1003c8b8     libusb:windows_usb.obj
 0002:0000a904       ??_C@_0CA@KCCPBMBP@unsupported_configure_endpoints?$AA@ 1003c904     libusb:windows_usb.obj
 0002:0000a928       ??_C@_0EI@FOOIFCBF@unsupported?5API?5call?5for?5?8claim_@ 1003c928     libusb:windows_usb.obj
 0002:0000a970       ??_C@_0BM@BKPJDEPH@unsupported_claim_interface?$AA@ 1003c970     libusb:windows_usb.obj
 0002:0000a990       ??_C@_0FB@CLDIDJEE@unsupported?5API?5call?5for?5?8set_in@ 1003c990     libusb:windows_usb.obj
 0002:0000a9e4       ??_C@_0CF@CHKGFDGI@unsupported_set_interface_altset@ 1003c9e4     libusb:windows_usb.obj
 0002:0000aa10       ??_C@_0EK@JMLFCCI@unsupported?5API?5call?5for?5?8releas@ 1003ca10     libusb:windows_usb.obj
 0002:0000aa5c       ??_C@_0BO@EODHKDMH@unsupported_release_interface?$AA@ 1003ca5c     libusb:windows_usb.obj
 0002:0000aa80       ??_C@_0ED@MBKJCELE@unsupported?5API?5call?5for?5?8clear_@ 1003ca80     libusb:windows_usb.obj
 0002:0000aac4       ??_C@_0BH@NIBIHIAJ@unsupported_clear_halt?$AA@ 1003cac4     libusb:windows_usb.obj
 0002:0000aae0       ??_C@_0EF@NEMBLMIN@unsupported?5API?5call?5for?5?8reset_@ 1003cae0     libusb:windows_usb.obj
 0002:0000ab28       ??_C@_0BJ@MBJPMKHB@unsupported_reset_device?$AA@ 1003cb28     libusb:windows_usb.obj
 0002:0000ab48       ??_C@_0EN@MNPKEGCB@unsupported?5API?5call?5for?5?8submit@ 1003cb48     libusb:windows_usb.obj
 0002:0000ab98       ??_C@_0CB@OMPOCLMJ@unsupported_submit_bulk_transfer@ 1003cb98     libusb:windows_usb.obj
 0002:0000abc0       ??_C@_0EM@JCFOJPKJ@unsupported?5API?5call?5for?5?8submit@ 1003cbc0     libusb:windows_usb.obj
 0002:0000ac0c       ??_C@_0CA@EKAFEOPP@unsupported_submit_iso_transfer?$AA@ 1003cc0c     libusb:windows_usb.obj
 0002:0000ac30       ??_C@_0FA@PCFHOMBD@unsupported?5API?5call?5for?5?8submit@ 1003cc30     libusb:windows_usb.obj
 0002:0000ac80       ??_C@_0CE@JGOHFDHI@unsupported_submit_control_trans@ 1003cc80     libusb:windows_usb.obj
 0002:0000aca8       ??_C@_0EG@JEJBEADM@unsupported?5API?5call?5for?5?8abort_@ 1003cca8     libusb:windows_usb.obj
 0002:0000acf0       ??_C@_0BK@DLIGKEKP@unsupported_abort_control?$AA@ 1003ccf0     libusb:windows_usb.obj
 0002:0000ad10       ??_C@_0EI@FKAMAAFF@unsupported?5API?5call?5for?5?8abort_@ 1003cd10     libusb:windows_usb.obj
 0002:0000ad58       ??_C@_0BM@JCHEHKJP@unsupported_abort_transfers?$AA@ 1003cd58     libusb:windows_usb.obj
 0002:0000ad78       ??_C@_0EL@LFEMLDFB@unsupported?5API?5call?5for?5?8copy_t@ 1003cd78     libusb:windows_usb.obj
 0002:0000adc4       ??_C@_0BP@DJJBKDPI@unsupported_copy_transfer_data?$AA@ 1003cdc4     libusb:windows_usb.obj
 0002:0000ade4       ??_C@_06ENMPCGOP@USBHUB?$AA@ 1003cde4     libusb:windows_usb.obj
 0002:0000adec       ??_C@_07MEJDFFPP@USBHUB3?$AA@ 1003cdec     libusb:windows_usb.obj
 0002:0000adf4       ??_C@_07MHKPPGCB@USB3HUB?$AA@ 1003cdf4     libusb:windows_usb.obj
 0002:0000adfc       ??_C@_08FCNEOFHD@NUSB3HUB?$AA@ 1003cdfc     libusb:windows_usb.obj
 0002:0000ae08       ??_C@_08BICAFEBG@RUSB3HUB?$AA@ 1003ce08     libusb:windows_usb.obj
 0002:0000ae14       ??_C@_07LAJAOJHC@FLXHCIH?$AA@ 1003ce14     libusb:windows_usb.obj
 0002:0000ae1c       ??_C@_06IOHLGGAH@TIHUB3?$AA@ 1003ce1c     libusb:windows_usb.obj
 0002:0000ae24       ??_C@_09MIGPABKG@ETRONHUB3?$AA@ 1003ce24     libusb:windows_usb.obj
 0002:0000ae30       ??_C@_07PCGODDC@VIAHUB3?$AA@ 1003ce30     libusb:windows_usb.obj
 0002:0000ae38       ??_C@_08KKFAIGOO@ASMTHUB3?$AA@ 1003ce38     libusb:windows_usb.obj
 0002:0000ae44       ??_C@_08DGLFIILK@IUSB3HUB?$AA@ 1003ce44     libusb:windows_usb.obj
 0002:0000ae50       ??_C@_08EFMMAFBK@VUSB3HUB?$AA@ 1003ce50     libusb:windows_usb.obj
 0002:0000ae5c       ??_C@_08JENEPHF@AMDHUB30?$AA@ 1003ce5c     libusb:windows_usb.obj
 0002:0000ae68       ??_C@_07IOCKJGCC@USBCCGP?$AA@ 1003ce68     libusb:windows_usb.obj
 0002:0000ae70       ??_C@_06MADFPMEM@HIDUSB?$AA@ 1003ce70     libusb:windows_usb.obj
 0002:0000ae78       ??_C@_06PMEMIAKG@MOUHID?$AA@ 1003ce78     libusb:windows_usb.obj
 0002:0000ae80       ??_C@_06HOICBIHA@KBDHID?$AA@ 1003ce80     libusb:windows_usb.obj
 0002:0000ae88       ??_C@_0BA@NGJCLJCK@Unsupported?5API?$AA@ 1003ce88     libusb:windows_usb.obj
 0002:0000ae98       ??_C@_07PMLGFOBJ@HUB?5API?$AA@ 1003ce98     libusb:windows_usb.obj
 0002:0000aea0       ??_C@_0O@LLNGNPGA@Composite?5API?$AA@ 1003cea0     libusb:windows_usb.obj
 0002:0000aeb0       ??_C@_0BB@CMCFKOAG@WinUSB?9like?5APIs?$AA@ 1003ceb0     libusb:windows_usb.obj
 0002:0000aec4       ??_C@_07IKJBELLO@HID?5API?$AA@ 1003cec4     libusb:windows_usb.obj
 0002:0000aecc       ??_C@_0DF@EDAGHBOP@libusbK?5DLL?5is?5not?5available?0?5wi@ 1003cecc     libusb:windows_usb.obj
 0002:0000af04       ??_C@_0N@KKAEMDDD@winusbx_init?$AA@ 1003cf04     libusb:windows_usb.obj
 0002:0000af18       ??_C@_0GC@CDFBAFBD@WinUSB?5DLL?5is?5not?5available?5eith@ 1003cf18     libusb:windows_usb.obj
 0002:0000af7c       ??_C@_0CH@NNCGJCOB@using?5libusbK?5DLL?5for?5universal?5@ 1003cf7c     libusb:windows_usb.obj
 0002:0000afa4       ??_C@_0BA@PODKOPAP@LibK_GetVersion?$AA@ 1003cfa4     libusb:windows_usb.obj
 0002:0000afb4       ??_C@_0BN@MKHCKCLD@libusbK?5version?3?5?$CFd?4?$CFd?4?$CFd?4?$CFd?$AA@ 1003cfb4     libusb:windows_usb.obj
 0002:0000afd4       ??_C@_0BE@MHFBPMPF@LibK_GetProcAddress?$AA@ 1003cfd4     libusb:windows_usb.obj
 0002:0000afe8       ??_C@_0CP@DHKCNFPP@LibK_GetProcAddress?$CI?$CJ?5not?5found?5@ 1003cfe8     libusb:windows_usb.obj
 0002:0000b018       ??_C@_0BB@EPHPEHAO@WinUsb_AbortPipe?$AA@ 1003d018     libusb:windows_usb.obj
 0002:0000b02c       ??_C@_0BH@CJPHMFDN@WinUsb_ControlTransfer?$AA@ 1003d02c     libusb:windows_usb.obj
 0002:0000b044       ??_C@_0BB@FKHJGDFC@WinUsb_FlushPipe?$AA@ 1003d044     libusb:windows_usb.obj
 0002:0000b058       ??_C@_0M@JDIGDABO@WinUsb_Free?$AA@ 1003d058     libusb:windows_usb.obj
 0002:0000b064       ??_C@_0BO@BJMOOJKI@WinUsb_GetAssociatedInterface?$AA@ 1003d064     libusb:windows_usb.obj
 0002:0000b084       ??_C@_0CC@GKGBKKLF@WinUsb_GetCurrentAlternateSettin@ 1003d084     libusb:windows_usb.obj
 0002:0000b0a8       ??_C@_0BF@KCKKIJEK@WinUsb_GetDescriptor?$AA@ 1003d0a8     libusb:windows_usb.obj
 0002:0000b0c0       ??_C@_0BL@GHNNGPPL@WinUsb_GetOverlappedResult?$AA@ 1003d0c0     libusb:windows_usb.obj
 0002:0000b0dc       ??_C@_0BF@DKKNPFAJ@WinUsb_GetPipePolicy?$AA@ 1003d0dc     libusb:windows_usb.obj
 0002:0000b0f4       ??_C@_0BG@FIHCINFI@WinUsb_GetPowerPolicy?$AA@ 1003d0f4     libusb:windows_usb.obj
 0002:0000b10c       ??_C@_0BC@NBFDOGEK@WinUsb_Initialize?$AA@ 1003d10c     libusb:windows_usb.obj
 0002:0000b120       ??_C@_0BO@HFOHLMG@WinUsb_QueryDeviceInformation?$AA@ 1003d120     libusb:windows_usb.obj
 0002:0000b140       ??_C@_0BO@BADNNBIJ@WinUsb_QueryInterfaceSettings?$AA@ 1003d140     libusb:windows_usb.obj
 0002:0000b160       ??_C@_0BB@INCOOGEI@WinUsb_QueryPipe?$AA@ 1003d160     libusb:windows_usb.obj
 0002:0000b174       ??_C@_0BA@BKHFGEAG@WinUsb_ReadPipe?$AA@ 1003d174     libusb:windows_usb.obj
 0002:0000b184       ??_C@_0BB@GOOKJGAI@WinUsb_ResetPipe?$AA@ 1003d184     libusb:windows_usb.obj
 0002:0000b198       ??_C@_0CC@FFFEGKKF@WinUsb_SetCurrentAlternateSettin@ 1003d198     libusb:windows_usb.obj
 0002:0000b1bc       ??_C@_0BF@EFLDEGHO@WinUsb_SetPipePolicy?$AA@ 1003d1bc     libusb:windows_usb.obj
 0002:0000b1d4       ??_C@_0BG@JGGMHHHE@WinUsb_SetPowerPolicy?$AA@ 1003d1d4     libusb:windows_usb.obj
 0002:0000b1ec       ??_C@_0BB@KEDKBJFD@WinUsb_WritePipe?$AA@ 1003d1ec     libusb:windows_usb.obj
 0002:0000b200       ??_C@_0BG@CFGIHLFO@initalized?5sub?5API?5?$CFs?$AA@ 1003d200     libusb:windows_usb.obj
 0002:0000b218       ??_C@_0BP@JIMPCDIE@Failed?5to?5initalize?5sub?5API?5?$CFs?$AA@ 1003d218     libusb:windows_usb.obj
 0002:0000b238       ??_C@_0CM@GIOFLGPM@could?5not?5open?5device?5?$CFs?5?$CIinterf@ 1003d238     libusb:windows_usb.obj
 0002:0000b264       ??_C@_0N@CMLFBFIA@winusbx_open?$AA@ 1003d264     libusb:windows_usb.obj
 0002:0000b274       ??_C@_0DO@MHONCMEE@failed?5to?5set?5PIPE_TRANSFER_TIME@ 1003d274     libusb:windows_usb.obj
 0002:0000b2b4       ??_C@_0BM@LLFOCFNI@winusbx_configure_endpoints?$AA@ 1003d2b4     libusb:windows_usb.obj
 0002:0000b2d0       ??_C@_0DL@LBMIDJMC@failed?5to?5disable?5SHORT_PACKET_T@ 1003d2d0     libusb:windows_usb.obj
 0002:0000b30c       ??_C@_0DJ@JKGGAFEC@failed?5to?5disable?5IGNORE_SHORT_P@ 1003d30c     libusb:windows_usb.obj
 0002:0000b348       ??_C@_0DH@PALGOJMJ@failed?5to?5enable?5ALLOW_PARTIAL_R@ 1003d348     libusb:windows_usb.obj
 0002:0000b380       ??_C@_0DE@NAJMCPPF@failed?5to?5enable?5AUTO_CLEAR_STAL@ 1003d380     libusb:windows_usb.obj
 0002:0000b3b4       ??_C@_0BB@DFNANBFM@?2?2?4?2libusb0?90000?$AA@ 1003d3b4     libusb:windows_usb.obj
 0002:0000b3c8       ??_C@_0CC@MHDBNNDM@could?5not?5access?5interface?5?$CFd?3?5?$CF@ 1003d3c8     libusb:windows_usb.obj
 0002:0000b3ec       ??_C@_0BI@EMEDHIKC@winusbx_claim_interface?$AA@ 1003d3ec     libusb:windows_usb.obj
 0002:0000b404       ??_C@_01HCONENDN@?$HL?$AA@ 1003d404     libusb:windows_usb.obj
 0002:0000b408       ??_C@_0BN@KHEBFGOM@could?5not?5open?5device?5?$CFs?3?5?$CFs?$AA@ 1003d408     libusb:windows_usb.obj
 0002:0000b428       ??_C@_0CK@KHNECDAK@could?5not?5initialize?5filter?5driv@ 1003d428     libusb:windows_usb.obj
 0002:0000b454       ??_C@_0DM@BMLOIDNN@auto?9claimed?5interface?50?5?$CIrequir@ 1003d454     libusb:windows_usb.obj
 0002:0000b490       ??_C@_0EI@MKPABBCD@failed?5to?5auto?9claim?5interface?50@ 1003d490     libusb:windows_usb.obj
 0002:0000b4d8       ??_C@_0CB@PEJLKLOB@could?5not?5claim?5interface?5?$CFd?3?5?$CFs@ 1003d4d8     libusb:windows_usb.obj
 0002:0000b4fc       ??_C@_0BF@EKIKKPMA@claimed?5interface?5?$CFd?$AA@ 1003d4fc     libusb:windows_usb.obj
 0002:0000b514       ??_C@_0BG@GEMHLEGG@will?5use?5interface?5?$CFd?$AA@ 1003d514     libusb:windows_usb.obj
 0002:0000b52c       ??_C@_0CA@EIILLKP@winusbx_submit_control_transfer?$AA@ 1003d52c     libusb:windows_usb.obj
 0002:0000b54c       ??_C@_0DE@LOCONHB@cannot?5set?5configuration?5other?5t@ 1003d54c     libusb:windows_usb.obj
 0002:0000b580       ??_C@_0BL@KKCBCELM@ControlTransfer?5failed?3?5?$CFs?$AA@ 1003d580     libusb:windows_usb.obj
 0002:0000b59c       ??_C@_0CA@FJMDJECH@interface?5must?5be?5claimed?5first?$AA@ 1003d59c     libusb:windows_usb.obj
 0002:0000b5bc       ??_C@_0CB@DPIDHLPH@winusbx_set_interface_altsetting@ 1003d5bc     libusb:windows_usb.obj
 0002:0000b5e0       ??_C@_0CG@GMHJCFHE@SetCurrentAlternateSetting?5faile@ 1003d5e0     libusb:windows_usb.obj
 0002:0000b608       ??_C@_0EE@IDKKGBGK@unable?5to?5match?5endpoint?5to?5an?5o@ 1003d608     libusb:windows_usb.obj
 0002:0000b64c       ??_C@_0BN@OJOHANOD@winusbx_submit_bulk_transfer?$AA@ 1003d64c     libusb:windows_usb.obj
 0002:0000b66c       ??_C@_0CI@OONMDALI@matched?5endpoint?5?$CF02X?5with?5inter@ 1003d66c     libusb:windows_usb.obj
 0002:0000b694       ??_C@_0BB@JJFEBJHO@reading?5?$CFd?5bytes?$AA@ 1003d694     libusb:windows_usb.obj
 0002:0000b6a8       ??_C@_0BB@NPBPMDPC@writing?5?$CFd?5bytes?$AA@ 1003d6a8     libusb:windows_usb.obj
 0002:0000b6bc       ??_C@_0BO@CJBPDAPF@ReadPipe?1WritePipe?5failed?3?5?$CFs?$AA@ 1003d6bc     libusb:windows_usb.obj
 0002:0000b6dc       ??_C@_0DN@LBFJHJLC@unable?5to?5match?5endpoint?5to?5an?5o@ 1003d6dc     libusb:windows_usb.obj
 0002:0000b71c       ??_C@_0BD@OFIKLFHH@winusbx_clear_halt?$AA@ 1003d71c     libusb:windows_usb.obj
 0002:0000b730       ??_C@_0BF@PJCKIGIN@ResetPipe?5failed?3?5?$CFs?$AA@ 1003d730     libusb:windows_usb.obj
 0002:0000b748       ??_C@_0DD@DIHOJDEE@program?5assertion?5failed?3?5invali@ 1003d748     libusb:windows_usb.obj
 0002:0000b77c       ??_C@_0BI@MEMODGMK@winusbx_abort_transfers?$AA@ 1003d77c     libusb:windows_usb.obj
 0002:0000b794       ??_C@_0BF@BEJCMNAA@AbortPipe?5failed?3?5?$CFs?$AA@ 1003d794     libusb:windows_usb.obj
 0002:0000b7ac       ??_C@_0BC@EFBBBIM@resetting?5ep?5?$CF02X?$AA@ 1003d7ac     libusb:windows_usb.obj
 0002:0000b7c0       ??_C@_0BF@JFPGBNJG@winusbx_reset_device?$AA@ 1003d7c0     libusb:windows_usb.obj
 0002:0000b7d8       ??_C@_0CJ@GEGNNCJI@AbortPipe?5?$CIpipe?5address?5?$CF02X?$CJ?5fa@ 1003d7d8     libusb:windows_usb.obj
 0002:0000b804       ??_C@_0CJ@FEKMHOIC@FlushPipe?5?$CIpipe?5address?5?$CF02X?$CJ?5fa@ 1003d804     libusb:windows_usb.obj
 0002:0000b830       ??_C@_0CJ@EPDKHAEM@ResetPipe?5?$CIpipe?5address?5?$CF02X?$CJ?5fa@ 1003d830     libusb:windows_usb.obj
 0002:0000b85c       ??_C@_0BE@NAFLECBC@_hid_get_descriptor?$AA@ 1003d85c     libusb:windows_usb.obj
 0002:0000b870       ??_C@_0M@MHDBFHD@unsupported?$AA@ 1003d870     libusb:windows_usb.obj
 0002:0000b87c       ??_C@_0DB@BKKCPAME@program?5assertion?5failed?3?5hid_bu@ 1003d87c     libusb:windows_usb.obj
 0002:0000b8b0       ??_C@_0BA@LAHJPAMN@_hid_get_report?$AA@ 1003d8b0     libusb:windows_usb.obj
 0002:0000b8c0       ??_C@_0BC@CDJADIOF@invalid?5size?5?$CI?$CFd?$CJ?$AA@ 1003d8c0     libusb:windows_usb.obj
 0002:0000b8d4       ??_C@_0BL@EAHJJKAD@unknown?5HID?5report?5type?5?$CFd?$AA@ 1003d8d4     libusb:windows_usb.obj
 0002:0000b8f0       ??_C@_0BC@OIBGMHLN@report?5ID?3?50x?$CF02X?$AA@ 1003d8f0     libusb:windows_usb.obj
 0002:0000b904       ??_C@_0BO@GODDHKCB@Failed?5to?5Read?5HID?5Report?3?5?$CFs?$AA@ 1003d904     libusb:windows_usb.obj
 0002:0000b928       ??_C@_0EO@DAHAGCEN@program?5assertion?5failed?5?9?5read?5@ 1003d928     libusb:windows_usb.obj
 0002:0000b978       ??_C@_0DH@BLFOPPE@mismatched?5report?5ID?5?$CIdata?5is?5?$CF0@ 1003d978     libusb:windows_usb.obj
 0002:0000b9b0       ??_C@_09MFKCPOML@OVERFLOW?$CB?$AA@ 1003d9b0     libusb:windows_usb.obj
 0002:0000b9bc       ??_C@_0BA@KOFGEHIE@_hid_set_report?$AA@ 1003d9bc     libusb:windows_usb.obj
 0002:0000b9cc       ??_C@_0CG@KPBHBPLK@Failed?5to?5Write?5HID?5Output?5Repor@ 1003d9cc     libusb:windows_usb.obj
 0002:0000b9f8       ??_C@_0FC@JLMOPCEP@program?5assertion?5failed?5?9?5write@ 1003d9f8     libusb:windows_usb.obj
 0002:0000ba4c       ??_C@_07FGKIDIDM@hid?4dll?$AA@ 1003da4c     libusb:windows_usb.obj
 0002:0000ba54       ??_C@_0BD@CBOMEPHA@HidD_GetAttributes?$AA@ 1003da54     libusb:windows_usb.obj
 0002:0000ba68       ??_C@_0BE@LJEGODDH@HidD_GetAttributesA?$AA@ 1003da68     libusb:windows_usb.obj
 0002:0000ba7c       ??_C@_0BE@KFNOFGOA@HidD_GetAttributesW?$AA@ 1003da7c     libusb:windows_usb.obj
 0002:0000ba90       ??_C@_0BA@DOKLPHLJ@HidD_GetHidGuid?$AA@ 1003da90     libusb:windows_usb.obj
 0002:0000baa0       ??_C@_0BB@FLOBNOJL@HidD_GetHidGuidA?$AA@ 1003daa0     libusb:windows_usb.obj
 0002:0000bab4       ??_C@_0BB@EHHJGLEM@HidD_GetHidGuidW?$AA@ 1003dab4     libusb:windows_usb.obj
 0002:0000bac8       ??_C@_0BG@NCCNKODK@HidD_GetPreparsedData?$AA@ 1003dac8     libusb:windows_usb.obj
 0002:0000bae0       ??_C@_0BH@CPLMIKFI@HidD_GetPreparsedDataA?$AA@ 1003dae0     libusb:windows_usb.obj
 0002:0000baf8       ??_C@_0BH@DDCEDPIP@HidD_GetPreparsedDataW?$AA@ 1003daf8     libusb:windows_usb.obj
 0002:0000bb10       ??_C@_0BH@HPJNKOKM@HidD_FreePreparsedData?$AA@ 1003db10     libusb:windows_usb.obj
 0002:0000bb28       ??_C@_0BI@DGHNAMCJ@HidD_FreePreparsedDataA?$AA@ 1003db28     libusb:windows_usb.obj
 0002:0000bb40       ??_C@_0BI@CKOFLJPO@HidD_FreePreparsedDataW?$AA@ 1003db40     libusb:windows_usb.obj
 0002:0000bb58       ??_C@_0BL@NLNJBEKH@HidD_GetManufacturerString?$AA@ 1003db58     libusb:windows_usb.obj
 0002:0000bb74       ??_C@_0BM@KBALJBBL@HidD_GetManufacturerStringA?$AA@ 1003db74     libusb:windows_usb.obj
 0002:0000bb90       ??_C@_0BM@LNJDCEMM@HidD_GetManufacturerStringW?$AA@ 1003db90     libusb:windows_usb.obj
 0002:0000bbac       ??_C@_0BG@NNFFPJLB@HidD_GetProductString?$AA@ 1003dbac     libusb:windows_usb.obj
 0002:0000bbc4       ??_C@_0BH@FFNJKIKH@HidD_GetProductStringA?$AA@ 1003dbc4     libusb:windows_usb.obj
 0002:0000bbdc       ??_C@_0BH@EJEBBNHA@HidD_GetProductStringW?$AA@ 1003dbdc     libusb:windows_usb.obj
 0002:0000bbf4       ??_C@_0BL@OEJFEOIE@HidD_GetSerialNumberString?$AA@ 1003dbf4     libusb:windows_usb.obj
 0002:0000bc10       ??_C@_0BM@DFDKMDD@HidD_GetSerialNumberStringA?$AA@ 1003dc10     libusb:windows_usb.obj
 0002:0000bc2c       ??_C@_0BM@BPMLBJOE@HidD_GetSerialNumberStringW?$AA@ 1003dc2c     libusb:windows_usb.obj
 0002:0000bc48       ??_C@_0N@PAEDFHIM@HidP_GetCaps?$AA@ 1003dc48     libusb:windows_usb.obj
 0002:0000bc58       ??_C@_0O@NJMPCBI@HidP_GetCapsA?$AA@ 1003dc58     libusb:windows_usb.obj
 0002:0000bc68       ??_C@_0O@BBAEEHMP@HidP_GetCapsW?$AA@ 1003dc68     libusb:windows_usb.obj
 0002:0000bc78       ??_C@_0BI@HGIMLKHJ@HidD_SetNumInputBuffers?$AA@ 1003dc78     libusb:windows_usb.obj
 0002:0000bc90       ??_C@_0BJ@MAMNDLGG@HidD_SetNumInputBuffersA?$AA@ 1003dc90     libusb:windows_usb.obj
 0002:0000bcac       ??_C@_0BJ@NMFFIOLB@HidD_SetNumInputBuffersW?$AA@ 1003dcac     libusb:windows_usb.obj
 0002:0000bcc8       ??_C@_0BA@ENIKBGID@HidD_SetFeature?$AA@ 1003dcc8     libusb:windows_usb.obj
 0002:0000bcd8       ??_C@_0BB@JNJOCGMI@HidD_SetFeatureA?$AA@ 1003dcd8     libusb:windows_usb.obj
 0002:0000bcec       ??_C@_0BB@IBAGJDBP@HidD_SetFeatureW?$AA@ 1003dcec     libusb:windows_usb.obj
 0002:0000bd00       ??_C@_0BA@FDKFKBMK@HidD_GetFeature?$AA@ 1003dd00     libusb:windows_usb.obj
 0002:0000bd10       ??_C@_0BB@JCIAPAEL@HidD_GetFeatureA?$AA@ 1003dd10     libusb:windows_usb.obj
 0002:0000bd24       ??_C@_0BB@IOBIEFJM@HidD_GetFeatureW?$AA@ 1003dd24     libusb:windows_usb.obj
 0002:0000bd38       ??_C@_0BL@MHFEHFLL@HidD_GetPhysicalDescriptor?$AA@ 1003dd38     libusb:windows_usb.obj
 0002:0000bd54       ??_C@_0BM@LFBGEADF@HidD_GetPhysicalDescriptorA?$AA@ 1003dd54     libusb:windows_usb.obj
 0002:0000bd70       ??_C@_0BM@KJIOPFOC@HidD_GetPhysicalDescriptorW?$AA@ 1003dd70     libusb:windows_usb.obj
 0002:0000bd8c       ??_C@_0BE@OLFMKJCD@HidD_GetInputReport?$AA@ 1003dd8c     libusb:windows_usb.obj
 0002:0000bda0       ??_C@_0BF@ELOOFDJP@HidD_GetInputReportA?$AA@ 1003dda0     libusb:windows_usb.obj
 0002:0000bdb8       ??_C@_0BF@FHHGOGEI@HidD_GetInputReportW?$AA@ 1003ddb8     libusb:windows_usb.obj
 0002:0000bdd0       ??_C@_0BF@CKFEJBM@HidD_SetOutputReport?$AA@ 1003ddd0     libusb:windows_usb.obj
 0002:0000bde8       ??_C@_0BG@PNGBIHEC@HidD_SetOutputReportA?$AA@ 1003dde8     libusb:windows_usb.obj
 0002:0000be00       ??_C@_0BG@OBPJDCJF@HidD_SetOutputReportW?$AA@ 1003de00     libusb:windows_usb.obj
 0002:0000be18       ??_C@_0BA@LJPDBCFN@HidD_FlushQueue?$AA@ 1003de18     libusb:windows_usb.obj
 0002:0000be28       ??_C@_0BB@PMABKABP@HidD_FlushQueueA?$AA@ 1003de28     libusb:windows_usb.obj
 0002:0000be3c       ??_C@_0BB@OAJJBFMI@HidD_FlushQueueW?$AA@ 1003de3c     libusb:windows_usb.obj
 0002:0000be50       ??_C@_0BC@FJPMINCN@HidP_GetValueCaps?$AA@ 1003de50     libusb:windows_usb.obj
 0002:0000be64       ??_C@_0BD@KMOENOLM@HidP_GetValueCapsA?$AA@ 1003de64     libusb:windows_usb.obj
 0002:0000be78       ??_C@_0BD@LAHMGLGL@HidP_GetValueCapsW?$AA@ 1003de78     libusb:windows_usb.obj
 0002:0000be8c       ??_C@_05DFJCHPDH@input?$AA@ 1003de8c     libusb:windows_usb.obj
 0002:0000be94       ??_C@_06DKIGHACF@output?$AA@ 1003de94     libusb:windows_usb.obj
 0002:0000be9c       ??_C@_07IJDDADGK@feature?$AA@ 1003de9c     libusb:windows_usb.obj
 0002:0000bea8       ??_C@_0EA@OJCPKGIL@program?5assertion?5failed?5?9?5priva@ 1003dea8     libusb:windows_usb.obj
 0002:0000bee8       ??_C@_08HGPHKOEL@hid_open?$AA@ 1003dee8     libusb:windows_usb.obj
 0002:0000bef8       ??_C@_0EM@JBKJKIJP@could?5not?5open?5HID?5device?5in?5R?1W@ 1003def8     libusb:windows_usb.obj
 0002:0000bf48       ??_C@_0EB@LMOPKHMB@could?5not?5gain?5access?5to?5HID?5top@ 1003df48     libusb:windows_usb.obj
 0002:0000bf8c       ??_C@_0CE@NJPICEPE@set?5maximum?5input?5buffer?5size?5to@ 1003df8c     libusb:windows_usb.obj
 0002:0000bfb0       ??_C@_0DK@NCFKPDHG@could?5not?5read?5HID?5preparsed?5dat@ 1003dfb0     libusb:windows_usb.obj
 0002:0000bfec       ??_C@_0DA@OLCBNOGH@could?5not?5parse?5HID?5capabilities@ 1003dfec     libusb:windows_usb.obj
 0002:0000c01c       ??_C@_0CA@DCGKMELD@?$CFd?5HID?5?$CFs?5report?5value?$CIs?$CJ?5found?$AA@ 1003e01c     libusb:windows_usb.obj
 0002:0000c03c       ??_C@_0BE@OBOGANFC@?5?5Report?5ID?3?50x?$CF02X?$AA@ 1003e03c     libusb:windows_usb.obj
 0002:0000c050       ??_C@_0EC@KGHMBGFJ@program?5assertion?5failed?3?5zero?5a@ 1003e050     libusb:windows_usb.obj
 0002:0000c094       ??_C@_0CC@MDNKHFKI@?5?5could?5not?5process?5?$CFs?5report?5ID@ 1003e094     libusb:windows_usb.obj
 0002:0000c0b8       ??_C@_0BE@IMFPGHNH@hid_claim_interface?$AA@ 1003e0b8     libusb:windows_usb.obj
 0002:0000c0cc       ??_C@_0DJ@KGMIHKMJ@set?5interface?5altsetting?5not?5sup@ 1003e0cc     libusb:windows_usb.obj
 0002:0000c108       ??_C@_0BN@JBLKDGOE@hid_set_interface_altsetting?$AA@ 1003e108     libusb:windows_usb.obj
 0002:0000c128       ??_C@_0BM@OMKPOCEH@hid_submit_control_transfer?$AA@ 1003e128     libusb:windows_usb.obj
 0002:0000c144       ??_C@_0CA@GGJLHHOK@unsupported?5HID?5control?5request?$AA@ 1003e144     libusb:windows_usb.obj
 0002:0000c164       ??_C@_0BJ@OGJKIMP@hid_submit_bulk_transfer?$AA@ 1003e164     libusb:windows_usb.obj
 0002:0000c180       ??_C@_0CD@JJIMDCMF@reading?5?$CFd?5bytes?5?$CIreport?5ID?3?50x0@ 1003e180     libusb:windows_usb.obj
 0002:0000c1a4       ??_C@_0CF@DABBPAGB@writing?5?$CFd?5bytes?5?$CIreport?5ID?3?50x?$CF@ 1003e1a4     libusb:windows_usb.obj
 0002:0000c1cc       ??_C@_0BI@BGFEELBI@HID?5transfer?5failed?3?5?$CFs?$AA@ 1003e1cc     libusb:windows_usb.obj
 0002:0000c1e4       ??_C@_0DD@IMFOFEKA@program?5assertion?5failed?5?9?5no?5da@ 1003e1e4     libusb:windows_usb.obj
 0002:0000c218       ??_C@_0P@KJIEFJNF@hid_clear_halt?$AA@ 1003e218     libusb:windows_usb.obj
 0002:0000c228       ??_C@_0CB@BPHEHBIP@Flushing?5of?5HID?5queue?5failed?3?5?$CFs@ 1003e228     libusb:windows_usb.obj
 0002:0000c24c       ??_C@_0BH@KPPPONME@hid_copy_transfer_data?$AA@ 1003e24c     libusb:windows_usb.obj
 0002:0000c268       ??_C@_0EB@ECKDFOK@trying?5to?5skip?5restricted?5interf@ 1003e268     libusb:windows_usb.obj
 0002:0000c2ac       ??_C@_0CC@IALLGALK@composite_submit_control_transfe@ 1003e2ac     libusb:windows_usb.obj
 0002:0000c2d0       ??_C@_0BD@MLCBENGM@using?5interface?5?$CFd?$AA@ 1003e2d0     libusb:windows_usb.obj
 0002:0000c2e4       ??_C@_0DD@ICEHKHMM@no?5libusb?5supported?5interfaces?5t@ 1003e2e4     libusb:windows_usb.obj
 0002:0000c318       ??_C@_0BP@PNIPIJCP@composite_submit_bulk_transfer?$AA@ 1003e318     libusb:windows_usb.obj
 0002:0000c338       ??_C@_0BO@DKKMPECE@composite_submit_iso_transfer?$AA@ 1003e338     libusb:windows_usb.obj
 0002:0000c358       ??_C@_0BF@BHNMEGGO@composite_clear_halt?$AA@ 1003e358     libusb:windows_usb.obj
 0002:0000c370       ??_C@_0BB@HHLFFLFF@actual_length?$DN?$CFd?$AA@ 1003e370     libusb:sync.obj
 0002:0000c384       ??_C@_0BB@MGAIPGNB@sync_transfer_cb?$AA@ 1003e384     libusb:sync.obj
 0002:0000c398       ??_C@_0EC@JACIJMNO@libusb_handle_events?5failed?3?5?$CFs?0@ 1003e398     libusb:sync.obj
 0002:0000c3dc       ??_C@_0CC@DBMGHGJC@sync_transfer_wait_for_completio@ 1003e3dc     libusb:sync.obj
 0002:0000c400       ??_C@_0BM@PJOOMGGO@unrecognised?5status?5code?5?$CFd?$AA@ 1003e400     libusb:sync.obj
 0002:0000c41c       ??_C@_0BI@IBHNMBKD@libusb_control_transfer?$AA@ 1003e41c     libusb:sync.obj
 0002:0000c438       __real@3ff0000000000000    1003e438     node_usb.obj
 0002:0000c440       __real@4000000000000000    1003e440     node_usb.obj
 0002:0000c448       __real@4008000000000000    1003e448     node_usb.obj
 0002:0000c450       __real@4010000000000000    1003e450     node_usb.obj
 0002:0000c458       __real@4014000000000000    1003e458     node_usb.obj
 0002:0000c460       __real@4018000000000000    1003e460     node_usb.obj
 0002:0000c468       __real@401c000000000000    1003e468     node_usb.obj
 0002:0000c470       __real@4020000000000000    1003e470     node_usb.obj
 0002:0000c478       __real@4022000000000000    1003e478     node_usb.obj
 0002:0000c480       __real@4024000000000000    1003e480     node_usb.obj
 0002:0000c488       __real@4026000000000000    1003e488     node_usb.obj
 0002:0000c490       __real@4028000000000000    1003e490     node_usb.obj
 0002:0000c498       __real@4040000000000000    1003e498     node_usb.obj
 0002:0000c4a0       __real@4040800000000000    1003e4a0     node_usb.obj
 0002:0000c4a8       __real@4041000000000000    1003e4a8     node_usb.obj
 0002:0000c4b0       __real@4041800000000000    1003e4b0     node_usb.obj
 0002:0000c4b8       __real@4044800000000000    1003e4b8     node_usb.obj
 0002:0000c4c0       __real@4050000000000000    1003e4c0     node_usb.obj
 0002:0000c4c8       __real@4058000000000000    1003e4c8     node_usb.obj
 0002:0000c4d0       __real@4060000000000000    1003e4d0     node_usb.obj
 0002:0000c4d8       __real@406c000000000000    1003e4d8     node_usb.obj
 0002:0000c4e0       __real@406fc00000000000    1003e4e0     node_usb.obj
 0002:0000c4e8       __real@406fe00000000000    1003e4e8     node_usb.obj
 0002:0000c4f0       __real@bff0000000000000    1003e4f0     node_usb.obj
 0002:0000c4f8       __real@c000000000000000    1003e4f8     node_usb.obj
 0002:0000c500       __real@c008000000000000    1003e500     node_usb.obj
 0002:0000c508       __real@c010000000000000    1003e508     node_usb.obj
 0002:0000c510       __real@c014000000000000    1003e510     node_usb.obj
 0002:0000c518       __real@c018000000000000    1003e518     node_usb.obj
 0002:0000c520       __real@c01c000000000000    1003e520     node_usb.obj
 0002:0000c528       __real@c020000000000000    1003e528     node_usb.obj
 0002:0000c530       __real@c022000000000000    1003e530     node_usb.obj
 0002:0000c538       __real@c024000000000000    1003e538     node_usb.obj
 0002:0000c540       __real@c026000000000000    1003e540     node_usb.obj
 0002:0000c548       __real@c028000000000000    1003e548     node_usb.obj
 0002:0000c550       __real@c058c00000000000    1003e550     node_usb.obj
 0002:0000c5b8       __load_config_used         1003e5b8     LIBCMT:loadcfg.obj
 0002:0000c614       ??_R4exception@std@@6B@    1003e614     libcpmt:xthrow.obj
 0002:0000c628       ??_R3exception@std@@8      1003e628     libcpmt:xthrow.obj
 0002:0000c638       ??_R2exception@std@@8      1003e638     libcpmt:xthrow.obj
 0002:0000c640       ??_R1A@?0A@EA@exception@std@@8 1003e640     libcpmt:xthrow.obj
 0002:0000c65c       ??_R4bad_alloc@std@@6B@    1003e65c     libcpmt:xthrow.obj
 0002:0000c670       ??_R3bad_alloc@std@@8      1003e670     libcpmt:xthrow.obj
 0002:0000c680       ??_R2bad_alloc@std@@8      1003e680     libcpmt:xthrow.obj
 0002:0000c68c       ??_R1A@?0A@EA@bad_alloc@std@@8 1003e68c     libcpmt:xthrow.obj
 0002:0000c6a8       ??_R4logic_error@std@@6B@  1003e6a8     libcpmt:xthrow.obj
 0002:0000c6bc       ??_R3logic_error@std@@8    1003e6bc     libcpmt:xthrow.obj
 0002:0000c6cc       ??_R2logic_error@std@@8    1003e6cc     libcpmt:xthrow.obj
 0002:0000c6d8       ??_R1A@?0A@EA@logic_error@std@@8 1003e6d8     libcpmt:xthrow.obj
 0002:0000c6f4       ??_R4length_error@std@@6B@ 1003e6f4     libcpmt:xthrow.obj
 0002:0000c708       ??_R3length_error@std@@8   1003e708     libcpmt:xthrow.obj
 0002:0000c718       ??_R2length_error@std@@8   1003e718     libcpmt:xthrow.obj
 0002:0000c728       ??_R1A@?0A@EA@length_error@std@@8 1003e728     libcpmt:xthrow.obj
 0002:0000c744       ??_R4type_info@@6B@        1003e744     LIBCMT:std_type_info_static.obj
 0002:0000c758       ??_R3type_info@@8          1003e758     LIBCMT:std_type_info_static.obj
 0002:0000c768       ??_R2type_info@@8          1003e768     LIBCMT:std_type_info_static.obj
 0002:0000c770       ??_R1A@?0A@EA@type_info@@8 1003e770     LIBCMT:std_type_info_static.obj
 0002:0000c78c       ??_R4bad_array_new_length@std@@6B@ 1003e78c     LIBCMT:throw_bad_alloc.obj
 0002:0000c7a0       ??_R3bad_array_new_length@std@@8 1003e7a0     LIBCMT:throw_bad_alloc.obj
 0002:0000c7b0       ??_R2bad_array_new_length@std@@8 1003e7b0     LIBCMT:throw_bad_alloc.obj
 0002:0000c7c0       ??_R1A@?0A@EA@bad_array_new_length@std@@8 1003e7c0     LIBCMT:throw_bad_alloc.obj
 0002:0000c7dc       ??_R4bad_exception@std@@6B@ 1003e7dc     libvcruntime:frame.obj
 0002:0000c7f0       ??_R3bad_exception@std@@8  1003e7f0     libvcruntime:frame.obj
 0002:0000c800       ??_R2bad_exception@std@@8  1003e800     libvcruntime:frame.obj
 0002:0000c80c       ??_R1A@?0A@EA@bad_exception@std@@8 1003e80c     libvcruntime:frame.obj
 0002:0000c830       ___safe_se_handler_table   1003e830     <linker-defined>
 0002:0000cc54       ___rtc_iaa                 1003ec54     LIBCMT:_initsect_.obj
 0002:0000cc58       ___rtc_izz                 1003ec58     LIBCMT:_initsect_.obj
 0002:0000cc5c       ___rtc_taa                 1003ec5c     LIBCMT:_initsect_.obj
 0002:0000cc60       ___rtc_tzz                 1003ec60     LIBCMT:_initsect_.obj
 0002:0000d314       __TI2?AVbad_alloc@std@@    1003f314     libcpmt:xthrow.obj
 0002:0000d324       __CTA2?AVbad_alloc@std@@   1003f324     libcpmt:xthrow.obj
 0002:0000d330       __CT??_R0?AVbad_alloc@std@@@8??0bad_alloc@std@@QAE@ABV01@@Z12 1003f330     libcpmt:xthrow.obj
 0002:0000d34c       __CT??_R0?AVexception@std@@@8??0exception@std@@QAE@ABV01@@Z12 1003f34c     libcpmt:xthrow.obj
 0002:0000d368       __CT??_R0?AVlogic_error@std@@@8??0logic_error@std@@QAE@ABV01@@Z12 1003f368     libcpmt:xthrow.obj
 0002:0000d384       __TI3?AVlength_error@std@@ 1003f384     libcpmt:xthrow.obj
 0002:0000d394       __CTA3?AVlength_error@std@@ 1003f394     libcpmt:xthrow.obj
 0002:0000d3a4       __CT??_R0?AVlength_error@std@@@8??0length_error@std@@QAE@ABV01@@Z12 1003f3a4     libcpmt:xthrow.obj
 0002:0000d43c       __TI3?AVbad_array_new_length@std@@ 1003f43c     LIBCMT:throw_bad_alloc.obj
 0002:0000d44c       __CTA3?AVbad_array_new_length@std@@ 1003f44c     LIBCMT:throw_bad_alloc.obj
 0002:0000d45c       __CT??_R0?AVbad_array_new_length@std@@@8??0bad_array_new_length@std@@QAE@ABV01@@Z12 1003f45c     LIBCMT:throw_bad_alloc.obj
 0002:0000d57c       __TI2?AVbad_exception@std@@ 1003f57c     libvcruntime:frame.obj
 0002:0000d58c       __CTA2?AVbad_exception@std@@ 1003f58c     libvcruntime:frame.obj
 0002:0000d598       __CT??_R0?AVbad_exception@std@@@8??0bad_exception@std@@QAE@ABV01@@Z12 1003f598     libvcruntime:frame.obj
 0002:0000da0c       __IMPORT_DESCRIPTOR_KERNEL32 1003fa0c     kernel32:KERNEL32.dll
 0002:0000da20       __IMPORT_DESCRIPTOR_node   1003fa20     iojs:node.dll
 0002:0000da34       __IMPORT_DESCRIPTOR_USER32 1003fa34     user32:USER32.dll
 0002:0000da48       __NULL_IMPORT_DESCRIPTOR   1003fa48     kernel32:KERNEL32.dll
 0003:00000000       ___scrt_native_dllmain_reason 10042000     LIBCMT:utility.obj
 0003:00000004       ___security_cookie_complement 10042004     LIBCMT:gs_cookie.obj
 0003:00000008       ___security_cookie         10042008     LIBCMT:gs_cookie.obj
 0003:0000000c       ___isa_enabled             1004200c     LIBCMT:_cpu_disp_.obj
 0003:00000020       __NLG_Destination          10042020     libvcruntime:_exsup_.obj
 0003:00000030       __iob                      10042030     libucrt:_file.obj
 0003:000000e0       ___abort_behavior          100420e0     libucrt:abort.obj
 0003:000000e8       ___acrt_initial_locale_data 100420e8     libucrt:nlsdata.obj
 0003:000001a0       ___acrt_initial_locale_pointers 100421a0     libucrt:nlsdata.obj
 0003:000001a8       ___acrt_wide_c_locale_string 100421a8     libucrt:nlsdata.obj
 0003:000001b0       ___badioinfo               100421b0     libucrt:ioinit.obj
 0003:000001e0       __pwctype                  100421e0     libucrt:ctype.obj
 0003:000002d8       __mbctype                  100422d8     libucrt:mbctype.obj
 0003:000003e0       __mbcasemap                100423e0     libucrt:mbctype.obj
 0003:000004e0       ___acrt_initial_multibyte_data 100424e0     libucrt:mbctype.obj
 0003:00000700       ___acrt_current_multibyte_data 10042700     libucrt:mbctype.obj
 0003:00000704       ___globallocalestatus      10042704     libucrt:glstatus.obj
 0003:00000708       ___acrt_lconv_static_decimal 10042708     libucrt:localeconv.obj
 0003:0000070c       ___acrt_lconv_static_W_decimal 1004270c     libucrt:localeconv.obj
 0003:00000710       ___acrt_lconv_c            10042710     libucrt:localeconv.obj
 0003:00000760       ___dcrt_lowio_console_output_handle 10042760     libucrt:initcon.obj
 0003:00000770       __fltused                  10042770     LIBCMT:fltused.obj
 0003:000007ac       _request_count             100427ac     libusb:windows_usb.obj
 0003:000007b4       _hid_driver_names          100427b4     libusb:windows_usb.obj
 0003:00000840       _windows_version           10042840     libusb:windows_usb.obj
 0003:00000844       _winusbx_driver_names      10042844     libusb:windows_usb.obj
 0003:00000850       _composite_driver_names    10042850     libusb:windows_usb.obj
 0003:00000854       _hub_driver_names          10042854     libusb:windows_usb.obj
 0003:00000890       ??_R0?AVbad_alloc@std@@@8  10042890     libcpmt:xthrow.obj
 0003:000008ac       ??_R0?AVexception@std@@@8  100428ac     libcpmt:xthrow.obj
 0003:000008c8       ??_R0?AVlogic_error@std@@@8 100428c8     libcpmt:xthrow.obj
 0003:000008e8       ??_R0?AVlength_error@std@@@8 100428e8     libcpmt:xthrow.obj
 0003:00000908       ??_R0?AVtype_info@@@8      10042908     LIBCMT:std_type_info_static.obj
 0003:00000920       ??_R0?AVbad_array_new_length@std@@@8 10042920     LIBCMT:throw_bad_alloc.obj
 0003:00000948       ??_R0?AVbad_exception@std@@@8 10042948     libvcruntime:frame.obj
 0003:00000980       ___scrt_current_native_startup_state 10042980     LIBCMT:utility.obj
 0003:00000984       ___scrt_native_startup_lock 10042984     LIBCMT:utility.obj
 0003:00000cc4       ___isa_available           10042cc4     LIBCMT:_cpu_disp_.obj
 0003:00000cc8       ___favor                   10042cc8     LIBCMT:_cpu_disp_.obj
 0003:00000ccc       ___scrt_debugger_hook_flag 10042ccc     LIBCMT:utility_desktop.obj
 0003:00000cd0       ?__type_info_root_node@@3U__type_info_node@@A 10042cd0     LIBCMT:tncleanup.obj
 0003:00000cd8       ?g_OutOfMemoryExceptionCallback@@3P6GPAXXZA 10042cd8     libvcruntime:frame.obj
 0003:00000d54       ___pPurecall               10042d54     libvcruntime:purevirt_data.obj
 0003:00000d58       ?pArgList@UnDecorator@@0PAVReplicator@@A 10042d58     libvcruntime:undname.obj
 0003:00000d5c       ?pZNameList@UnDecorator@@0PAVReplicator@@A 10042d5c     libvcruntime:undname.obj
 0003:00000d60       ?pTemplateArgList@UnDecorator@@0PAVReplicator@@A 10042d60     libvcruntime:undname.obj
 0003:00000d64       ?gName@UnDecorator@@0PBDB  10042d64     libvcruntime:undname.obj
 0003:00000d68       ?name@UnDecorator@@0PBDB   10042d68     libvcruntime:undname.obj
 0003:00000d6c       ?outputString@UnDecorator@@0PADA 10042d6c     libvcruntime:undname.obj
 0003:00000d70       ?maxStringLength@UnDecorator@@0HA 10042d70     libvcruntime:undname.obj
 0003:00000d74       ?disableFlags@UnDecorator@@0KA 10042d74     libvcruntime:undname.obj
 0003:00000d78       ?fExplicitTemplateParams@UnDecorator@@0_NA 10042d78     libvcruntime:undname.obj
 0003:00000d79       ?fGetTemplateArgumentList@UnDecorator@@0_NA 10042d79     libvcruntime:undname.obj
 0003:00000d7c       ?m_pGetParameter@UnDecorator@@0P6APADJ@ZA 10042d7c     libvcruntime:undname.obj
 0003:00000d98       __nstream                  10042d98     libucrt:_file.obj
 0003:00000d9c       ___piob                    10042d9c     libucrt:_file.obj
 0003:00000da0       __cflush                   10042da0     libucrt:_file.obj
 0003:00000ec0       __environ_table            10042ec0     libucrt:environment_initialization.obj
 0003:00000ec4       __wenviron_table           10042ec4     libucrt:environment_initialization.obj
 0003:00000ec8       ___dcrt_initial_wide_environment 10042ec8     libucrt:environment_initialization.obj
 0003:00000ecc       ___dcrt_initial_narrow_environment 10042ecc     libucrt:environment_initialization.obj
 0003:00000ed0       ___acrt_atexit_table       10042ed0     libucrt:onexit.obj
 0003:00000edc       ___acrt_at_quick_exit_table 10042edc     libucrt:onexit.obj
 0003:00000ee8       ___acrt_locale_changed_data 10042ee8     libucrt:wsetlocale.obj
 0003:00000eec       ___acrt_current_locale_data 10042eec     libucrt:nlsdata.obj
 0003:00000fc8       ___pioinfo                 10042fc8     libucrt:ioinit.obj
 0003:000011c8       __nhandle                  100431c8     libucrt:ioinit.obj
 0003:000011d0       ___acrt_stdout_buffer      100431d0     libucrt:_sftbuf.obj
 0003:000011d4       ___acrt_stderr_buffer      100431d4     libucrt:_sftbuf.obj
 0003:0000132c       ___mblocalename            1004332c     libucrt:mbctype.obj
 0003:00001330       ___mbcodepage              10043330     libucrt:mbctype.obj
 0003:00001334       ___ismbcodepage            10043334     libucrt:mbctype.obj
 0003:00001338       ___mbulinfo                10043338     libucrt:mbctype.obj
 0003:0000134c       ___argc                    1004334c     libucrt:argv_data.obj
 0003:00001350       ___argv                    10043350     libucrt:argv_data.obj
 0003:00001354       ___wargv                   10043354     libucrt:argv_data.obj
 0003:00001358       __acmdln                   10043358     libucrt:argv_data.obj
 0003:0000135c       __wcmdln                   1004335c     libucrt:argv_data.obj
 0003:00001360       __pgmptr                   10043360     libucrt:argv_data.obj
 0003:00001364       ___acrt_heap               10043364     libucrt:heap_handle.obj
 0003:00001370       ___acrt_lconv_static_null  10043370     libucrt:localeconv.obj
 0003:00001374       ___acrt_lconv_static_W_null 10043374     libucrt:localeconv.obj
 0003:00001378       ___fastflag                10043378     libucrt:fp_flags.obj
 0003:00001380       ?usb_context@@3PAUlibusb_context@@A 10043380     node_usb.obj
 0003:00001384       ?hotplugEnabled@@3_NA      10043384     node_usb.obj
 0003:00001385       _is_polling_set            10043385     libusb:poll_windows.obj
 0003:00001388       ?usb_thread@@3PAXA         10043388     node_usb.obj
 0003:0000138c       ?hotplugHandle@@3HA        1004338c     node_usb.obj
 0003:000013a0       _active_contexts_lock      100433a0     libusb:core.obj
 0003:000013a8       _usbi_default_context      100433a8     libusb:core.obj
 0003:000013b4       _timer_response            100433b4     libusb:windows_usb.obj
 0003:000013c0       _timer_mutex               100433c0     libusb:windows_usb.obj
 0003:000013c8       _hotplug_thread            100433c8     libusb:windows_usb.obj
 0003:000013e0       _hotplug_ready             100433e0     libusb:windows_usb.obj
 0003:000013e4       _htab_table                100433e4     libusb:windows_usb.obj
 0003:000013f8       _hHotplugMessage           100433f8     libusb:windows_usb.obj
 0003:000013fc       _timer_thread              100433fc     libusb:windows_usb.obj
 0003:0000140c       _api_hid_available         1004340c     libusb:windows_usb.obj
 0003:00001410       _HID_guid                  10043410     libusb:windows_usb.obj
 0003:00001430       _hotplug_response          10043430     libusb:windows_usb.obj
 0003:00001458       _timer_request             10043458     libusb:windows_usb.obj
 0003:00001470       _host_controller           10043470     libusb:windows_usb.obj
 0003:000014f8       _htab_write_mutex          100434f8     libusb:windows_usb.obj
 0003:00001510       ?hotplugThis@@3V?$Persistent@VObject@v8@@V?$NonCopyablePersistentTraits@VObject@v8@@@2@@Nan@@A 10043510     node_usb.obj
 0003:00001514       ?byPtr@Device@@1V?$map@PAUlibusb_device@@V?$Persistent@VObject@v8@@V?$NonCopyablePersistentTraits@VObject@v8@@@2@@Nan@@U?$less@PAUlibusb_device@@@std@@V?$allocator@U?$pair@QAUlibusb_device@@V?$Persistent@VObject@v8@@V?$NonCopyablePersistentTraits@VObject@v8@@@2@@Nan@@@std@@@5@@std@@A 10043514     device.obj
 0003:00001520       ?hotplugQueue@@3V?$UVQueue@U?$pair@PAUlibusb_device@@W4libusb_hotplug_event@@@std@@@@A 10043520     node_usb.obj
 0003:000015f0       ?completionQueue@@3V?$UVQueue@PAUTransfer@@@@A 100435f0     transfer.obj
 0003:000018a8       ___dyn_tls_init_callback   100438a8     <common>
 0003:000018ac       ___scrt_ucrt_dll_is_in_use 100438ac     <common>
 0003:000018b0       __pmatherr                 100438b0     <common>
 0003:000018b4       ___use_sse2_mathfcns       100438b4     <common>
 0003:000018b8       _htab_size                 100438b8     <common>
 0003:000018bc       _host_controller_lock      100438bc     <common>
 0003:000018c0       _htab_filled               100438c0     <common>
 0003:000018c8       _hires_ticks_to_ps         100438c8     <common>
 0003:000018d0       _hires_frequency           100438d0     <common>
 0003:000018d8       _autoclaim_lock            100438d8     <common>
 0003:000018e0       _timer_tp                  100438e0     <common>
 0003:00001900       __poll_fd                  10043900     <common>
 0003:00004100       _poll_fd                   10046100     <common>
 0003:00005900       _active_contexts_list      10047900     <common>
 0003:00005908       ?_OptionsStorage@?1??__local_stdio_printf_options@@9@9 10047908     <common>
 0003:00005910       ?_OptionsStorage@?1??__local_stdio_scanf_options@@9@9 10047910     <common>

 entry point at        0001:00017860

 Static symbols

 0000:fffb2000       .debug$S                   10000000     kernel32:KERNEL32.dll
 0000:fffb2000       .debug$S                   10000000     usb_bindings.exp
 0000:fffb2000       .debug$S                   10000000     kernel32:KERNEL32.dll
 0000:fffb2000       .debug$S                   10000000     kernel32:KERNEL32.dll
 0000:fffb2000       .debug$S                   10000000     kernel32:KERNEL32.dll
 0000:fffb2000       .debug$S                   10000000     kernel32:KERNEL32.dll
 0000:fffb2000       .debug$S                   10000000     kernel32:KERNEL32.dll
 0000:fffb2000       .debug$S                   10000000     kernel32:KERNEL32.dll
 0000:fffb2000       .debug$S                   10000000     kernel32:KERNEL32.dll
 0000:fffb2000       .debug$S                   10000000     kernel32:KERNEL32.dll
 0000:fffb2000       .debug$S                   10000000     kernel32:KERNEL32.dll
 0000:fffb2000       .debug$S                   10000000     kernel32:KERNEL32.dll
 0000:fffb2000       .debug$S                   10000000     kernel32:KERNEL32.dll
 0000:fffb2000       .debug$S                   10000000     kernel32:KERNEL32.dll
 0000:fffb2000       .debug$S                   10000000     kernel32:KERNEL32.dll
 0000:fffb2000       .debug$S                   10000000     kernel32:KERNEL32.dll
 0000:fffb2000       .debug$S                   10000000     kernel32:KERNEL32.dll
 0000:fffb2000       .debug$S                   10000000     kernel32:KERNEL32.dll
 0000:fffb2000       .debug$S                   10000000     kernel32:KERNEL32.dll
 0000:fffb2000       .debug$S                   10000000     kernel32:KERNEL32.dll
 0000:fffb2000       .debug$S                   10000000     kernel32:KERNEL32.dll
 0000:fffb2000       .debug$S                   10000000     kernel32:KERNEL32.dll
 0000:fffb2000       .debug$S                   10000000     kernel32:KERNEL32.dll
 0000:fffb2000       .debug$S                   10000000     kernel32:KERNEL32.dll
 0000:fffb2000       .debug$S                   10000000     kernel32:KERNEL32.dll
 0000:fffb2000       .debug$S                   10000000     kernel32:KERNEL32.dll
 0000:fffb2000       .debug$S                   10000000     kernel32:KERNEL32.dll
 0000:fffb2000       .debug$S                   10000000     kernel32:KERNEL32.dll
 0000:fffb2000       .debug$S                   10000000     kernel32:KERNEL32.dll
 0000:fffb2000       .debug$S                   10000000     kernel32:KERNEL32.dll
 0000:fffb2000       .debug$S                   10000000     kernel32:KERNEL32.dll
 0000:fffb2000       .debug$S                   10000000     kernel32:KERNEL32.dll
 0000:fffb2000       .debug$S                   10000000     kernel32:KERNEL32.dll
 0000:fffb2000       .debug$S                   10000000     kernel32:KERNEL32.dll
 0000:fffb2000       .debug$S                   10000000     kernel32:KERNEL32.dll
 0000:fffb2000       .debug$S                   10000000     kernel32:KERNEL32.dll
 0000:fffb2000       .debug$S                   10000000     kernel32:KERNEL32.dll
 0000:fffb2000       .debug$S                   10000000     kernel32:KERNEL32.dll
 0000:fffb2000       .debug$S                   10000000     kernel32:KERNEL32.dll
 0000:fffb2000       .debug$S                   10000000     kernel32:KERNEL32.dll
 0000:fffb2000       .debug$S                   10000000     kernel32:KERNEL32.dll
 0000:fffb2000       .debug$S                   10000000     kernel32:KERNEL32.dll
 0000:fffb2000       .debug$S                   10000000     kernel32:KERNEL32.dll
 0000:fffb2000       .debug$S                   10000000     kernel32:KERNEL32.dll
 0000:fffb2000       .debug$S                   10000000     kernel32:KERNEL32.dll
 0000:fffb2000       .debug$S                   10000000     kernel32:KERNEL32.dll
 0000:fffb2000       .debug$S                   10000000     kernel32:KERNEL32.dll
 0000:fffb2000       .debug$S                   10000000     kernel32:KERNEL32.dll
 0000:fffb2000       .debug$S                   10000000     iojs:node.dll
 0000:fffb2000       .debug$S                   10000000     iojs:node.dll
 0000:fffb2000       .debug$S                   10000000     iojs:node.dll
 0000:fffb2000       .debug$S                   10000000     iojs:node.dll
 0000:fffb2000       .debug$S                   10000000     iojs:node.dll
 0000:fffb2000       .debug$S                   10000000     iojs:node.dll
 0000:fffb2000       .debug$S                   10000000     iojs:node.dll
 0000:fffb2000       .debug$S                   10000000     iojs:node.dll
 0000:fffb2000       .debug$S                   10000000     iojs:node.dll
 0000:fffb2000       .debug$S                   10000000     kernel32:KERNEL32.dll
 0000:fffb2000       .debug$S                   10000000     iojs:node.dll
 0000:fffb2000       .debug$S                   10000000     kernel32:KERNEL32.dll
 0000:fffb2000       .debug$S                   10000000     kernel32:KERNEL32.dll
 0000:fffb2000       .debug$S                   10000000     kernel32:KERNEL32.dll
 0000:fffb2000       .debug$S                   10000000     iojs:node.dll
 0000:fffb2000       .debug$S                   10000000     iojs:node.dll
 0000:fffb2000       .debug$S                   10000000     iojs:node.dll
 0000:fffb2000       .debug$S                   10000000     iojs:node.dll
 0000:fffb2000       .debug$S                   10000000     iojs:node.dll
 0000:fffb2000       .debug$S                   10000000     iojs:node.dll
 0000:fffb2000       .debug$S                   10000000     iojs:node.dll
 0000:fffb2000       .debug$S                   10000000     iojs:node.dll
 0000:fffb2000       .debug$S                   10000000     iojs:node.dll
 0000:fffb2000       .debug$S                   10000000     iojs:node.dll
 0000:fffb2000       .debug$S                   10000000     iojs:node.dll
 0000:fffb2000       .debug$S                   10000000     iojs:node.dll
 0000:fffb2000       .debug$S                   10000000     iojs:node.dll
 0000:fffb2000       .debug$S                   10000000     iojs:node.dll
 0000:fffb2000       .debug$S                   10000000     iojs:node.dll
 0000:fffb2000       .debug$S                   10000000     iojs:node.dll
 0000:fffb2000       .debug$S                   10000000     iojs:node.dll
 0000:fffb2000       .debug$S                   10000000     iojs:node.dll
 0000:fffb2000       .debug$S                   10000000     iojs:node.dll
 0000:fffb2000       .debug$S                   10000000     iojs:node.dll
 0000:fffb2000       .debug$S                   10000000     iojs:node.dll
 0000:fffb2000       .debug$S                   10000000     iojs:node.dll
 0000:fffb2000       .debug$S                   10000000     iojs:node.dll
 0000:fffb2000       .debug$S                   10000000     iojs:node.dll
 0000:fffb2000       .debug$S                   10000000     iojs:node.dll
 0000:fffb2000       .debug$S                   10000000     iojs:node.dll
 0000:fffb2000       .debug$S                   10000000     iojs:node.dll
 0000:fffb2000       .debug$S                   10000000     iojs:node.dll
 0000:fffb2000       .debug$S                   10000000     iojs:node.dll
 0000:fffb2000       .debug$S                   10000000     iojs:node.dll
 0000:fffb2000       .debug$S                   10000000     iojs:node.dll
 0000:fffb2000       .debug$S                   10000000     iojs:node.dll
 0000:fffb2000       .debug$S                   10000000     iojs:node.dll
 0000:fffb2000       .debug$S                   10000000     iojs:node.dll
 0000:fffb2000       .debug$S                   10000000     iojs:node.dll
 0000:fffb2000       .debug$S                   10000000     iojs:node.dll
 0000:fffb2000       .debug$S                   10000000     iojs:node.dll
 0000:fffb2000       .debug$S                   10000000     iojs:node.dll
 0000:fffb2000       .debug$S                   10000000     iojs:node.dll
 0000:fffb2000       .debug$S                   10000000     iojs:node.dll
 0000:fffb2000       .debug$S                   10000000     iojs:node.dll
 0000:fffb2000       .debug$S                   10000000     iojs:node.dll
 0000:fffb2000       .debug$S                   10000000     iojs:node.dll
 0000:fffb2000       .debug$S                   10000000     iojs:node.dll
 0000:fffb2000       .debug$S                   10000000     iojs:node.dll
 0000:fffb2000       .debug$S                   10000000     iojs:node.dll
 0000:fffb2000       .debug$S                   10000000     iojs:node.dll
 0000:fffb2000       .debug$S                   10000000     iojs:node.dll
 0000:fffb2000       .debug$S                   10000000     iojs:node.dll
 0000:fffb2000       .debug$S                   10000000     iojs:node.dll
 0000:fffb2000       .debug$S                   10000000     kernel32:KERNEL32.dll
 0000:fffb2000       .debug$S                   10000000     iojs:node.dll
 0000:fffb2000       .debug$S                   10000000     kernel32:KERNEL32.dll
 0000:fffb2000       .debug$S                   10000000     iojs:node.dll
 0000:fffb2000       .debug$S                   10000000     kernel32:KERNEL32.dll
 0000:fffb2000       .debug$S                   10000000     iojs:node.dll
 0000:fffb2000       .debug$S                   10000000     iojs:node.dll
 0000:fffb2000       .debug$S                   10000000     iojs:node.dll
 0000:fffb2000       .debug$S                   10000000     iojs:node.dll
 0000:fffb2000       .debug$S                   10000000     iojs:node.dll
 0000:fffb2000       .debug$S                   10000000     iojs:node.dll
 0000:fffb2000       .debug$S                   10000000     iojs:node.dll
 0000:fffb2000       .debug$S                   10000000     iojs:node.dll
 0000:fffb2000       .debug$S                   10000000     iojs:node.dll
 0000:fffb2000       .debug$S                   10000000     iojs:node.dll
 0000:fffb2000       .debug$S                   10000000     iojs:node.dll
 0000:fffb2000       .debug$S                   10000000     iojs:node.dll
 0000:fffb2000       .debug$S                   10000000     iojs:node.dll
 0000:fffb2000       .debug$S                   10000000     iojs:node.dll
 0000:fffb2000       .debug$S                   10000000     iojs:node.dll
 0000:fffb2000       .debug$S                   10000000     iojs:node.dll
 0000:fffb2000       .debug$S                   10000000     iojs:node.dll
 0000:fffb2000       .debug$S                   10000000     iojs:node.dll
 0000:fffb2000       .debug$S                   10000000     iojs:node.dll
 0000:fffb2000       .debug$S                   10000000     iojs:node.dll
 0000:fffb2000       .debug$S                   10000000     iojs:node.dll
 0000:fffb2000       .debug$S                   10000000     iojs:node.dll
 0000:fffb2000       .debug$S                   10000000     iojs:node.dll
 0000:fffb2000       .debug$S                   10000000     iojs:node.dll
 0000:fffb2000       .debug$S                   10000000     iojs:node.dll
 0000:fffb2000       .debug$S                   10000000     iojs:node.dll
 0000:fffb2000       .debug$S                   10000000     iojs:node.dll
 0000:fffb2000       .debug$S                   10000000     iojs:node.dll
 0000:fffb2000       .debug$S                   10000000     iojs:node.dll
 0000:fffb2000       .debug$S                   10000000     iojs:node.dll
 0000:fffb2000       .debug$S                   10000000     user32:USER32.dll
 0000:fffb2000       .debug$S                   10000000     user32:USER32.dll
 0000:fffb2000       .debug$S                   10000000     user32:USER32.dll
 0000:fffb2000       .debug$S                   10000000     user32:USER32.dll
 0000:fffb2000       .debug$S                   10000000     user32:USER32.dll
 0000:fffb2000       .debug$S                   10000000     user32:USER32.dll
 0000:fffb2000       .debug$S                   10000000     user32:USER32.dll
 0000:fffb2000       .debug$S                   10000000     kernel32:KERNEL32.dll
 0000:fffb2000       .debug$S                   10000000     kernel32:KERNEL32.dll
 0000:fffb2000       .debug$S                   10000000     kernel32:KERNEL32.dll
 0000:fffb2000       .debug$S                   10000000     kernel32:KERNEL32.dll
 0000:fffb2000       .debug$S                   10000000     kernel32:KERNEL32.dll
 0000:fffb2000       .debug$S                   10000000     kernel32:KERNEL32.dll
 0000:fffb2000       .debug$S                   10000000     kernel32:KERNEL32.dll
 0000:fffb2000       .debug$S                   10000000     kernel32:KERNEL32.dll
 0000:fffb2000       .debug$S                   10000000     kernel32:KERNEL32.dll
 0000:fffb2000       .debug$S                   10000000     kernel32:KERNEL32.dll
 0000:fffb2000       .debug$S                   10000000     kernel32:KERNEL32.dll
 0000:fffb2000       .debug$S                   10000000     kernel32:KERNEL32.dll
 0000:fffb2000       .debug$S                   10000000     kernel32:KERNEL32.dll
 0000:fffb2000       .debug$S                   10000000     kernel32:KERNEL32.dll
 0000:fffb2000       .debug$S                   10000000     kernel32:KERNEL32.dll
 0000:fffb2000       .debug$S                   10000000     kernel32:KERNEL32.dll
 0000:fffb2000       .debug$S                   10000000     kernel32:KERNEL32.dll
 0000:fffb2000       .debug$S                   10000000     kernel32:KERNEL32.dll
 0000:fffb2000       .debug$S                   10000000     kernel32:KERNEL32.dll
 0000:fffb2000       .debug$S                   10000000     kernel32:KERNEL32.dll
 0000:fffb2000       .debug$S                   10000000     kernel32:KERNEL32.dll
 0000:fffb2000       .debug$S                   10000000     kernel32:KERNEL32.dll
 0000:fffb2000       .debug$S                   10000000     kernel32:KERNEL32.dll
 0000:fffb2000       .debug$S                   10000000     kernel32:KERNEL32.dll
 0000:fffb2000       .debug$S                   10000000     kernel32:KERNEL32.dll
 0000:fffb2000       .debug$S                   10000000     kernel32:KERNEL32.dll
 0000:fffb2000       .debug$S                   10000000     kernel32:KERNEL32.dll
 0000:fffb2000       .debug$S                   10000000     kernel32:KERNEL32.dll
 0000:fffb2000       .debug$S                   10000000     kernel32:KERNEL32.dll
 0000:fffb2000       .debug$S                   10000000     kernel32:KERNEL32.dll
 0000:fffb2000       .debug$S                   10000000     kernel32:KERNEL32.dll
 0000:fffb2000       .debug$S                   10000000     kernel32:KERNEL32.dll
 0000:fffb2000       .debug$S                   10000000     kernel32:KERNEL32.dll
 0000:fffb2000       .debug$S                   10000000     kernel32:KERNEL32.dll
 0000:fffb2000       .debug$S                   10000000     kernel32:KERNEL32.dll
 0000:fffb2000       .debug$S                   10000000     kernel32:KERNEL32.dll
 0000:fffb2000       .debug$S                   10000000     kernel32:KERNEL32.dll
 0000:fffb2000       .debug$S                   10000000     kernel32:KERNEL32.dll
 0000:fffb2000       .debug$S                   10000000     kernel32:KERNEL32.dll
 0000:fffb2000       .debug$S                   10000000     kernel32:KERNEL32.dll
 0000:fffb2000       .debug$S                   10000000     kernel32:KERNEL32.dll
 0000:fffb2000       .debug$S                   10000000     kernel32:KERNEL32.dll
 0000:fffb2000       .debug$S                   10000000     kernel32:KERNEL32.dll
 0000:fffb2000       .debug$S                   10000000     kernel32:KERNEL32.dll
 0000:fffb2000       .debug$S                   10000000     kernel32:KERNEL32.dll
 0000:fffb2000       .debug$S                   10000000     kernel32:KERNEL32.dll
 0000:fffb2000       .debug$S                   10000000     kernel32:KERNEL32.dll
 0000:fffb2000       .debug$S                   10000000     kernel32:KERNEL32.dll
 0000:fffb2000       .debug$S                   10000000     kernel32:KERNEL32.dll
 0000:fffb2000       .debug$S                   10000000     kernel32:KERNEL32.dll
 0000:fffb2000       .debug$S                   10000000     kernel32:KERNEL32.dll
 0000:fffb2000       .debug$S                   10000000     kernel32:KERNEL32.dll
 0000:fffb2000       .debug$S                   10000000     kernel32:KERNEL32.dll
 0000:fffb2000       .debug$S                   10000000     kernel32:KERNEL32.dll
 0000:fffb2000       .debug$S                   10000000     kernel32:KERNEL32.dll
 0000:fffb2000       .debug$S                   10000000     kernel32:KERNEL32.dll
 0000:fffb2000       .debug$S                   10000000     kernel32:KERNEL32.dll
 0000:fffb2000       .debug$S                   10000000     kernel32:KERNEL32.dll
 0000:fffb2000       .debug$S                   10000000     kernel32:KERNEL32.dll
 0000:fffb2000       .debug$S                   10000000     kernel32:KERNEL32.dll
 0000:fffb2000       .debug$S                   10000000     kernel32:KERNEL32.dll
 0000:fffb2000       .debug$S                   10000000     kernel32:KERNEL32.dll
 0001:00000000       ??__EhotplugThis@@YAXXZ    10001000 f   node_usb.obj
 0001:00000020       ??__EhotplugQueue@@YAXXZ   10001020 f   node_usb.obj
 0001:00000040       ??__Edevice_constructor@@YAXXZ 10001040 f   device.obj
 0001:00000060       ??__E?byPtr@Device@@1V?$map@PAUlibusb_device@@V?$Persistent@VObject@v8@@V?$NonCopyablePersistentTraits@VObject@v8@@@2@@Nan@@U?$less@PAUlibusb_device@@@std@@V?$allocator@U?$pair@QAUlibusb_device@@V?$Persistent@VObject@v8@@V?$NonCopyablePersistentTraits@VObject@v8@@@2@@Nan@@@std@@@5@@std@@A@@YAXXZ 10001060 f   device.obj
 0001:000000c0       ??__EcompletionQueue@@YAXXZ 100010c0 f   transfer.obj
 0001:000000e0       ?FunctionCallbackWrapper@imp@Nan@@YAXABV?$FunctionCallbackInfo@VValue@v8@@@v8@@@Z 100010e0 f   node_usb.obj
 0001:00000620       __register_usb_bindings    10001620 f   node_usb.obj
 0001:00003df0       ?deviceConstructor@@YAXABV?$FunctionCallbackInfo@VValue@v8@@@Nan@@@Z 10004df0 f   device.obj
 0001:00007250       ?setConst@@YAXV?$Local@VObject@v8@@@v8@@QBDV?$Local@VValue@v8@@@2@@Z 10008250 f   transfer.obj
 0001:00008ca0       _do_close                  10009ca0 f   libusb:core.obj
 0001:00009a64       $LN66                      1000aa64     libusb:core.obj
 0001:00009b38       $LN28                      1000ab38     libusb:core.obj
 0001:00009b8c       $LN26                      1000ab8c     libusb:core.obj
 0001:0000a1b0       _calculate_timeout         1000b1b0 f   libusb:io.obj
 0001:0000a2b0       _add_to_flying_list        1000b2b0 f   libusb:io.obj
 0001:0000aa80       _handle_timeouts_locked    1000ba80 f   libusb:io.obj
 0001:0000ab70       _handle_timeouts           1000bb70 f   libusb:io.obj
 0001:0000abe0       _handle_events             1000bbe0 f   libusb:io.obj
 0001:0000b5e4       $LN22                      1000c5e4     libusb:descriptor.obj
 0001:0000b5f8       $LN20                      1000c5f8     libusb:descriptor.obj
 0001:0000b610       _parse_endpoint            1000c610 f   libusb:descriptor.obj
 0001:0000b810       _clear_interface           1000c810 f   libusb:descriptor.obj
 0001:0000b8b0       _parse_interface           1000c8b0 f   libusb:descriptor.obj
 0001:0000bbd0       _clear_configuration       1000cbd0 f   libusb:descriptor.obj
 0001:0000bcd0       _parse_configuration       1000ccd0 f   libusb:descriptor.obj
 0001:0000bf40       _raw_desc_to_config        1000cf40 f   libusb:descriptor.obj
 0001:0000c510       _usbi_cond_intwait         1000d510 f   libusb:threads_windows.obj
 0001:0000c790       _cancel_io                 1000d790 f   libusb:poll_windows.obj
 0001:0000c940       __fd_to_index_and_lock     1000d940 f   libusb:poll_windows.obj
 0001:0000ce30       __free_index               1000de30 f   libusb:poll_windows.obj
 0001:0000d800       _guid_eq                   1000e800 f   libusb:windows_usb.obj
 0001:0000d840       _guid_to_string            1000e840 f   libusb:windows_usb.obj
 0001:0000d8a0       _windows_error_str         1000e8a0 f   libusb:windows_usb.obj
 0001:0000d9d0       _windows_device_priv_init  1000e9d0 f   libusb:windows_usb.obj
 0001:0000da60       _windows_device_priv_release 1000ea60 f   libusb:windows_usb.obj
 0001:0000db60       _sanitize_path             1000eb60 f   libusb:windows_usb.obj
 0001:0000dcd0       _init_dlls                 1000ecd0 f   libusb:windows_usb.obj
 0001:0000e3f0       _get_dev_info_data_by_guid 1000f3f0 f   libusb:windows_usb.obj
 0001:0000e480       _get_dev_info_data_by_device_id 1000f480 f   libusb:windows_usb.obj
 0001:0000e550       _get_interface_detail_actual 1000f550 f   libusb:windows_usb.obj
 0001:0000e6f0       _get_interface_details_filter 1000f6f0 f   libusb:windows_usb.obj
 0001:0000e810       _parse_device_interface_path 1000f810 f   libusb:windows_usb.obj
 0001:0000e8e0       _htab_create               1000f8e0 f   libusb:windows_usb.obj
 0001:0000e9c0       _htab_destroy              1000f9c0 f   libusb:windows_usb.obj
 0001:0000ea60       _htab_hash                 1000fa60 f   libusb:windows_usb.obj
 0001:0000ecb0       _get_device_id             1000fcb0 f   libusb:windows_usb.obj
 0001:0000ed50       _get_parent_device_id      1000fd50 f   libusb:windows_usb.obj
 0001:0000ed80       _windows_assign_endpoints  1000fd80 f   libusb:windows_usb.obj
 0001:0000eee0       _get_sub_api               1000fee0 f   libusb:windows_usb.obj
 0001:0000efe0       _auto_claim                1000ffe0 f   libusb:windows_usb.obj
 0001:0000f130       _auto_release              10010130 f   libusb:windows_usb.obj
 0001:0000f200       _is_x64                    10010200 f   libusb:windows_usb.obj
 0001:0000f290       _get_windows_version       10010290 f   libusb:windows_usb.obj
 0001:0000f5cc       $LN65                      100105cc     libusb:windows_usb.obj
 0001:0000f5f0       $LN59                      100105f0     libusb:windows_usb.obj
 0001:0000f610       _get_device_port_and_state 10010610 f   libusb:windows_usb.obj
 0001:0000f6d0       _windows_enumerate_device  100106d0 f   libusb:windows_usb.obj
 0001:0000fb90       _windows_hotplug_enumerate 10010b90 f   libusb:windows_usb.obj
 0001:0000fc20       _windows_hotplug_disconnect 10010c20 f   libusb:windows_usb.obj
 0001:00010580       _windows_init              10011580 f   libusb:windows_usb.obj
 0001:00010a80       _force_hcd_device_descriptor 10011a80 f   libusb:windows_usb.obj
 0001:00010c80       _cache_config_descriptors  10011c80 f   libusb:windows_usb.obj
 0001:00010fc0       _init_device               10011fc0 f   libusb:windows_usb.obj
 0001:00011414       $LN50                      10012414     libusb:windows_usb.obj
 0001:00011430       _get_api_type              10012430 f   libusb:windows_usb.obj
 0001:000116a0       _enumerate_device_interfaces 100126a0 f   libusb:windows_usb.obj
 0001:00011c00       _set_composite_interface   10012c00 f   libusb:windows_usb.obj
 0001:00011da0       _set_hid_interface         10012da0 f   libusb:windows_usb.obj
 0001:00011ed0       _unset_composite_interface 10012ed0 f   libusb:windows_usb.obj
 0001:00012040       _unset_hid_interface       10013040 f   libusb:windows_usb.obj
 0001:000121a0       _windows_exit              100131a0 f   libusb:windows_usb.obj
 0001:00012400       _windows_get_device_descriptor 10013400 f   libusb:windows_usb.obj
 0001:00012440       _windows_get_config_descriptor 10013440 f   libusb:windows_usb.obj
 0001:000124b0       _windows_get_active_config_descriptor 100134b0 f   libusb:windows_usb.obj
 0001:000124f0       _windows_open              100134f0 f   libusb:windows_usb.obj
 0001:00012540       _windows_close             10013540 f   libusb:windows_usb.obj
 0001:00012570       _windows_get_configuration 10013570 f   libusb:windows_usb.obj
 0001:000125b0       _windows_set_configuration 100135b0 f   libusb:windows_usb.obj
 0001:000125f0       _windows_claim_interface   100135f0 f   libusb:windows_usb.obj
 0001:00012660       _windows_set_interface_altsetting 10013660 f   libusb:windows_usb.obj
 0001:000126d0       _windows_release_interface 100136d0 f   libusb:windows_usb.obj
 0001:00012700       _windows_clear_halt        10013700 f   libusb:windows_usb.obj
 0001:00012730       _windows_reset_device      10013730 f   libusb:windows_usb.obj
 0001:00012760       _windows_kernel_driver_active 10013760 f   libusb:windows_usb.obj
 0001:00012760       _windows_detach_kernel_driver 10013760 f   libusb:windows_usb.obj
 0001:00012760       _windows_attach_kernel_driver 10013760 f   libusb:windows_usb.obj
 0001:00012770       _windows_destroy_device    10013770 f   libusb:windows_usb.obj
 0001:00012790       _windows_clear_transfer_priv 10013790 f   libusb:windows_usb.obj
 0001:00012810       _submit_bulk_transfer      10013810 f   libusb:windows_usb.obj
 0001:00012870       _submit_iso_transfer       10013870 f   libusb:windows_usb.obj
 0001:000128d0       _submit_control_transfer   100138d0 f   libusb:windows_usb.obj
 0001:00012920       _windows_submit_transfer   10013920 f   libusb:windows_usb.obj
 0001:00012980       $LN13                      10013980     libusb:windows_usb.obj
 0001:000129a0       _windows_cancel_transfer   100139a0 f   libusb:windows_usb.obj
 0001:00012a28       $LN20                      10013a28     libusb:windows_usb.obj
 0001:00012a40       _windows_transfer_callback 10013a40 f   libusb:windows_usb.obj
 0001:00012b80       _windows_handle_events     10013b80 f   libusb:windows_usb.obj
 0001:00013010       _windows_clock_gettime     10014010 f   libusb:windows_usb.obj
 0001:00013150       _common_configure_endpoints 10014150 f   libusb:windows_usb.obj
 0001:00013150       _winusbx_abort_control     10014150 f   libusb:windows_usb.obj
 0001:00013150       _unsupported_init          10014150 f   libusb:windows_usb.obj
 0001:00013150       _unsupported_exit          10014150 f   libusb:windows_usb.obj
 0001:00013150       _winusbx_exit              10014150 f   libusb:windows_usb.obj
 0001:00013150       _composite_init            10014150 f   libusb:windows_usb.obj
 0001:00013150       _composite_exit            10014150 f   libusb:windows_usb.obj
 0001:00013150       _hid_exit                  10014150 f   libusb:windows_usb.obj
 0001:00013160       _unsupported_open          10014160 f   libusb:windows_usb.obj
 0001:00013180       _unsupported_close         10014180 f   libusb:windows_usb.obj
 0001:000131a0       _unsupported_configure_endpoints 100141a0 f   libusb:windows_usb.obj
 0001:000131c0       _unsupported_claim_interface 100141c0 f   libusb:windows_usb.obj
 0001:000131e0       _unsupported_set_interface_altsetting 100141e0 f   libusb:windows_usb.obj
 0001:00013200       _unsupported_release_interface 10014200 f   libusb:windows_usb.obj
 0001:00013220       _unsupported_clear_halt    10014220 f   libusb:windows_usb.obj
 0001:00013240       _unsupported_reset_device  10014240 f   libusb:windows_usb.obj
 0001:00013260       _unsupported_submit_bulk_transfer 10014260 f   libusb:windows_usb.obj
 0001:00013280       _unsupported_submit_iso_transfer 10014280 f   libusb:windows_usb.obj
 0001:000132a0       _unsupported_submit_control_transfer 100142a0 f   libusb:windows_usb.obj
 0001:000132c0       _unsupported_abort_control 100142c0 f   libusb:windows_usb.obj
 0001:000132e0       _unsupported_abort_transfers 100142e0 f   libusb:windows_usb.obj
 0001:00013300       _unsupported_copy_transfer_data 10014300 f   libusb:windows_usb.obj
 0001:00013320       _winusbx_init              10014320 f   libusb:windows_usb.obj
 0001:00013710       _winusbx_open              10014710 f   libusb:windows_usb.obj
 0001:000137f0       _winusbx_close             100147f0 f   libusb:windows_usb.obj
 0001:00013860       _winusbx_configure_endpoints 10014860 f   libusb:windows_usb.obj
 0001:00013a30       _winusbx_claim_interface   10014a30 f   libusb:windows_usb.obj
 0001:00013e60       _winusbx_release_interface 10014e60 f   libusb:windows_usb.obj
 0001:00013ed0       _get_valid_interface       10014ed0 f   libusb:windows_usb.obj
 0001:00013f20       _interface_by_endpoint     10014f20 f   libusb:windows_usb.obj
 0001:00013f80       _winusbx_submit_control_transfer 10014f80 f   libusb:windows_usb.obj
 0001:000141d0       _winusbx_set_interface_altsetting 100151d0 f   libusb:windows_usb.obj
 0001:00014280       _winusbx_submit_bulk_transfer 10015280 f   libusb:windows_usb.obj
 0001:000144d0       _winusbx_clear_halt        100154d0 f   libusb:windows_usb.obj
 0001:000145a0       _winusbx_abort_transfers   100155a0 f   libusb:windows_usb.obj
 0001:00014680       _winusbx_reset_device      10015680 f   libusb:windows_usb.obj
 0001:00014940       _winusbx_copy_transfer_data 10015940 f   libusb:windows_usb.obj
 0001:00014950       __hid_get_device_descriptor 10015950 f   libusb:windows_usb.obj
 0001:000149d0       __hid_get_config_descriptor 100159d0 f   libusb:windows_usb.obj
 0001:00014b10       __hid_get_string_descriptor 10015b10 f   libusb:windows_usb.obj
 0001:00014bf0       __hid_get_hid_descriptor   10015bf0 f   libusb:windows_usb.obj
 0001:00014c80       __hid_get_report_descriptor 10015c80 f   libusb:windows_usb.obj
 0001:00014d90       __hid_get_descriptor       10015d90 f   libusb:windows_usb.obj
 0001:00014ef4       $LN21                      10015ef4     libusb:windows_usb.obj
 0001:00014f10       $LN19                      10015f10     libusb:windows_usb.obj
 0001:00014f40       __hid_get_report           10015f40 f   libusb:windows_usb.obj
 0001:00015160       __hid_set_report           10016160 f   libusb:windows_usb.obj
 0001:00015320       __hid_class_request        10016320 f   libusb:windows_usb.obj
 0001:000153a0       _hid_init                  100163a0 f   libusb:windows_usb.obj
 0001:00015910       _hid_open                  10016910 f   libusb:windows_usb.obj
 0001:00015e80       _hid_close                 10016e80 f   libusb:windows_usb.obj
 0001:00015ee0       _hid_claim_interface       10016ee0 f   libusb:windows_usb.obj
 0001:00015f60       _hid_release_interface     10016f60 f   libusb:windows_usb.obj
 0001:00015fc0       _hid_set_interface_altsetting 10016fc0 f   libusb:windows_usb.obj
 0001:00016010       _hid_submit_control_transfer 10017010 f   libusb:windows_usb.obj
 0001:000162f0       $LN66                      100172f0     libusb:windows_usb.obj
 0001:00016310       _hid_submit_bulk_transfer  10017310 f   libusb:windows_usb.obj
 0001:00016690       _hid_abort_transfers       10017690 f   libusb:windows_usb.obj
 0001:000166c0       _hid_reset_device          100176c0 f   libusb:windows_usb.obj
 0001:00016700       _hid_clear_halt            10017700 f   libusb:windows_usb.obj
 0001:000167c0       _hid_copy_transfer_data    100177c0 f   libusb:windows_usb.obj
 0001:00016850       _composite_open            10017850 f   libusb:windows_usb.obj
 0001:00016910       _composite_close           10017910 f   libusb:windows_usb.obj
 0001:000169b0       _composite_claim_interface 100179b0 f   libusb:windows_usb.obj
 0001:000169e0       _composite_set_interface_altsetting 100179e0 f   libusb:windows_usb.obj
 0001:00016a20       _composite_release_interface 10017a20 f   libusb:windows_usb.obj
 0001:00016a50       _composite_submit_control_transfer 10017a50 f   libusb:windows_usb.obj
 0001:00016b00       _composite_submit_bulk_transfer 10017b00 f   libusb:windows_usb.obj
 0001:00016b70       _composite_submit_iso_transfer 10017b70 f   libusb:windows_usb.obj
 0001:00016be0       _composite_clear_halt      10017be0 f   libusb:windows_usb.obj
 0001:00016c50       _composite_abort_control   10017c50 f   libusb:windows_usb.obj
 0001:00016c90       _composite_abort_transfers 10017c90 f   libusb:windows_usb.obj
 0001:00016cd0       _composite_reset_device    10017cd0 f   libusb:windows_usb.obj
 0001:00016d70       _composite_copy_transfer_data 10017d70 f   libusb:windows_usb.obj
 0001:00016db0       _sync_transfer_cb@4        10017db0 f   libusb:sync.obj
 0001:00016de0       _sync_transfer_wait_for_completion 10017de0 f   libusb:sync.obj
 0001:00017034       $LN45                      10018034     libusb:sync.obj
 0001:00017215       ?find_pe_section@@YAPAU_IMAGE_SECTION_HEADER@@QAEI@Z 10018215 f   LIBCMT:utility.obj
 0001:00017558       ?dllmain_crt_dispatch@@YGHQAUHINSTANCE__@@KQAX@Z 10018558 f   LIBCMT:dll_dllmain.obj
 0001:000175ab       ?dllmain_crt_process_attach@@YAHQAUHINSTANCE__@@QAX@Z 100185ab f   LIBCMT:dll_dllmain.obj
 0001:000176bd       ?dllmain_crt_process_detach@@YAH_N@Z 100186bd f   LIBCMT:dll_dllmain.obj
 0001:0001773a       ?dllmain_dispatch@@YAHQAUHINSTANCE__@@KQAX@Z 1001873a f   LIBCMT:dll_dllmain.obj
 0001:00017836       ?dllmain_raw@@YGHQAUHINSTANCE__@@KQAX@Z 10018836 f   LIBCMT:dll_dllmain.obj
 0001:00017de0       $$000000                   10018de0     LIBCMT:_sehprolg4_.obj
 0001:00017f70       $$000000                   10018f70     libvcruntime:memmove.obj
 0001:000181d4       TrailingUpVec              100191d4     libvcruntime:memmove.obj
 0001:00018280       TrailingDownVec            10019280     libvcruntime:memmove.obj
 0001:000185ab       ?CallCatchBlock@@YAPAXPAUEHExceptionRecord@@PAUEHRegistrationNode@@PAU_CONTEXT@@PBU_s_FuncInfo@@PAXHK@Z 100195ab f   libvcruntime:frame.obj
 0001:00018767       ?CallUnexpected@@YAXPBU_s_ESTypeList@@@Z 10019767 f   libvcruntime:frame.obj
 0001:00018787       __catch$?CallUnexpected@@YAXPBU_s_ESTypeList@@@Z$0 10019787 f   libvcruntime:frame.obj
 0001:000187a1       ?CatchIt@@YAXPAUEHExceptionRecord@@PAUEHRegistrationNode@@PAU_CONTEXT@@PAXPBU_s_FuncInfo@@PBU_s_HandlerType@@PBU_s_CatchableType@@PBU_s_TryBlockMapEntry@@H1E@Z 100197a1 f   libvcruntime:frame.obj
 0001:0001881c       ?ExFilterRethrow@@YAHPAU_EXCEPTION_POINTERS@@@Z 1001981c f   libvcruntime:frame.obj
 0001:00018866       ?FindHandler@@YAXPAUEHExceptionRecord@@PAUEHRegistrationNode@@PAU_CONTEXT@@PAXPBU_s_FuncInfo@@EH1@Z 10019866 f   libvcruntime:frame.obj
 0001:00018bce       ?FindHandlerForForeignException@@YAXPAUEHExceptionRecord@@PAUEHRegistrationNode@@PAU_CONTEXT@@PAXPBU_s_FuncInfo@@HH1@Z 10019bce f   libvcruntime:frame.obj
 0001:00018ce9       ?IsInExceptionSpec@@YAEPAUEHExceptionRecord@@PBU_s_ESTypeList@@@Z 10019ce9 f   libvcruntime:frame.obj
 0001:00018d85       ?Is_bad_exception_allowed@@YAEPBU_s_ESTypeList@@@Z 10019d85 f   libvcruntime:frame.obj
 0001:00019250       $$000000                   1001a250     libvcruntime:strchr.obj
 0001:000194e0       _ValidateLocalCookies      1001a4e0 f   libvcruntime:_chandler4_.obj
 0001:00019690       $$000000                   1001a690     libvcruntime:memset.obj
 0001:000199b0       $$000000                   1001a9b0     libvcruntime:lowhelpr.obj
 0001:00019e3d       ?try_get_function@@YAPAXW4function_id@?A0x89697e75@@QBDQBW4module_id@2@2@Z 1001ae3d f   libvcruntime:winapi_downlevel.obj
 0001:00019edd       ?try_get_module@@YAPAUHINSTANCE__@@W4module_id@?A0x89697e75@@@Z 1001aedd f   libvcruntime:winapi_downlevel.obj
 0001:0001a120       $$000000                   1001b120     libvcruntime:_exsup4_.obj
 0001:0001a1b0       __unwind_handler4          1001b1b0 f   libvcruntime:_exsup4_.obj
 0001:0001a280       $$000000                   1001b280     libvcruntime:_exsup_.obj
 0001:0001a2a0       __unwind_handler           1001b2a0 f   libvcruntime:_exsup_.obj
 0001:0001a95c       ??$common_vsprintf@Vstandard_base@__crt_stdio_output@@D@@YAH_KQADIQBDQAU__crt_locale_pointers@@1@Z 1001b95c f   libucrt:output.obj
 0001:0001aad8       ??$common_vsprintf@Vstandard_base@__crt_stdio_output@@_W@@YAH_KQA_WIQB_WQAU__crt_locale_pointers@@QAD@Z 1001bad8 f   libucrt:output.obj
 0001:0001b0e6       ??R<lambda_481dd5778c961fbcd3b60b650e9b9dc4>@@QBEHXZ 1001c0e6 f   libucrt:output.obj
 0001:0001b472       $LN54                      1001c472     libucrt:output.obj
 0001:0001b592       $LN54                      1001c592     libucrt:output.obj
 0001:0001b6b2       $LN54                      1001c6b2     libucrt:output.obj
 0001:0001c488       $LN19                      1001d488     libucrt:output.obj
 0001:0001d21f       ??R<lambda_9a20e10065b92b5193c3597a66cba9d4>@@QBEHXZ 1001e21f f   libucrt:fputs.obj
 0001:0001e06c       ??$common_getenv@D@@YAPADQBD@Z 1001f06c f   libucrt:getenv.obj
 0001:0001e0ec       ??$common_getenv_nolock@D@@YAPADQBD@Z 1001f0ec f   libucrt:getenv.obj
 0001:0001e1fe       ??$common_assert_to_message_box@_W@@YAXQB_W0IQAX@Z 1001f1fe f   libucrt:assert.obj
 0001:0001e29a       ??$common_assert_to_message_box_build_string@_W@@YAXQA_WIQB_W1IQAX@Z 1001f29a f   libucrt:assert.obj
 0001:0001e7df       ??$common_assert_to_stderr@_W@@YAXQB_W0I@Z 1001f7df f   libucrt:assert.obj
 0001:0001e88a       ?common_assert_to_stderr_direct@@YAXQB_W0I@Z 1001f88a f   libucrt:assert.obj
 0001:0001e93b       ?get_assert_format@@YAPB_W_W@Z 1001f93b f   libucrt:assert.obj
 0001:0001e9f8       _memcpy_s                  1001f9f8 f   libucrt:assert.obj
 0001:0001e9f8       _memcpy_s                  1001f9f8 f   libucrt:input.obj
 0001:0001e9f8       _memcpy_s                  1001f9f8 f   libucrt:mbctype.obj
 0001:0001e9f8       _memcpy_s                  1001f9f8 f   libucrt:cfout.obj
 0001:0001eab5       ??$common_tox_l@$1?internal_islower_l@@YA_NHQAU__crt_locale_pointers@@@Z$1?internal_map_upper@@YAHH0@Z@@YAHHKQAU__crt_locale_pointers@@@Z 1001fab5 f   libucrt:tolower_toupper.obj
 0001:0001ebff       ??$common_tox_l@$1?internal_isupper_l@@YA_NHQAU__crt_locale_pointers@@@Z$1?internal_map_lower@@YAHH0@Z@@YAHHKQAU__crt_locale_pointers@@@Z 1001fbff f   libucrt:tolower_toupper.obj
 0001:0001ed49       ?internal_islower_l@@YA_NHQAU__crt_locale_pointers@@@Z 1001fd49 f   libucrt:tolower_toupper.obj
 0001:0001ed66       ?internal_isupper_l@@YA_NHQAU__crt_locale_pointers@@@Z 1001fd66 f   libucrt:tolower_toupper.obj
 0001:0001ee17       ??$thread_start@P6GIPAX@Z@@YGKQAX@Z 1001fe17 f   libucrt:thread.obj
 0001:0001eecb       ?common_end_thread@@YAXI@Z 1001fecb f   libucrt:thread.obj
 0001:0001ef22       ?create_thread_parameter@@YAPAU__acrt_thread_parameter@@QAX0@Z 1001ff22 f   libucrt:thread.obj
 0001:0001f060       $$000000                   10020060     libucrt:strncmp.obj
 0001:0001f0e0       $$000000                   100200e0     libucrt:strncat.obj
 0001:0001f3d4       ??$common_vsscanf@D@@YAH_KQBDI1QAU__crt_locale_pointers@@QAD@Z 100203d4 f   libucrt:input.obj
 0001:0001fdc9       $LN38                      10020dc9     libucrt:input.obj
 0001:0001fecd       $LN21                      10020ecd     libucrt:input.obj
 0001:000206aa       ??R<lambda_24bca0711811e6233a81aece93ea4a83>@@QBE_NXZ 100216aa f   libucrt:input.obj
 0001:000206aa       ??R<lambda_4794eb6df3f6f7d20e048423b4e04b2b>@@QBE_NXZ 100216aa f   libucrt:input.obj
 0001:000206aa       ??R<lambda_79c077965043167fb4fbb9f601780f11>@@QBE_NXZ 100216aa f   libucrt:input.obj
 0001:000232b5       $LN22                      100242b5     libucrt:input.obj
 0001:00023a2e       $LN18                      10024a2e     libucrt:input.obj
 0001:00023e62       ?atexit_exception_filter@@YAHK@Z 10024e62 f   libucrt:exit.obj
 0001:00023e75       ?common_exit@@YAXHW4_crt_exit_cleanup_mode@@W4_crt_exit_return_mode@@@Z 10024e75 f   libucrt:exit.obj
 0001:00023f8e       ?exit_or_terminate_process@@YAXI@Z 10024f8e f   libucrt:exit.obj
 0001:00023fcf       ?is_managed_app@@YA_NXZ    10024fcf f   libucrt:exit.obj
 0001:00024013       ?try_cor_exit_process@@YAXI@Z 10025013 f   libucrt:exit.obj
 0001:000240b7       ??$common_configure_argv@D@@YAHW4_crt_argv_mode@@@Z 100250b7 f   libucrt:argv_parsing.obj
 0001:000241db       ??$parse_command_line@D@@YAXPADPAPAD0PAI2@Z 100251db f   libucrt:argv_parsing.obj
 0001:000243b0       ??$common_get_or_create_environment_nolock@D@@YAPAPADXZ 100253b0 f   libucrt:environment_initialization.obj
 0001:000243df       ??$common_initialize_environment_nolock@D@@YAHXZ 100253df f   libucrt:environment_initialization.obj
 0001:00024438       ??$create_environment@D@@YAQAPADQAD@Z 10025438 f   libucrt:environment_initialization.obj
 0001:00024509       ??$free_environment@_W@@YAXQAPA_W@Z 10025509 f   libucrt:environment_initialization.obj
 0001:00024509       ??$free_environment@D@@YAXQAPAD@Z 10025509 f   libucrt:environment_initialization.obj
 0001:00024538       ??$initialize_environment_by_cloning_nolock@D@@YAHXZ 10025538 f   libucrt:environment_initialization.obj
 0001:000245f7       ??$uninitialize_environment_internal@D@@YAXAAPAPAD@Z 100255f7 f   libucrt:environment_initialization.obj
 0001:00024612       ??$uninitialize_environment_internal@_W@@YAXAAPAPA_W@Z 10025612 f   libucrt:environment_initialization.obj
 0001:000247b0       ??R<lambda_275893d493268fdec8709772e3fcec0e>@@QBEHXZ 100257b0 f   libucrt:onexit.obj
 0001:000248d0       ??R<lambda_4e60a939b0d047cfe11ddc22648dfba9>@@QBEHXZ 100258d0 f   libucrt:onexit.obj
 0001:00024aa5       _initialize_global_variables 10025aa5 f   libucrt:initialization.obj
 0001:00024ab7       _initialize_c              10025ab7 f   libucrt:initialization.obj
 0001:00024ad1       _report_memory_leaks       10025ad1 f   libucrt:initialization.obj
 0001:00024ad1       _uninitialize_c            10025ad1 f   libucrt:initialization.obj
 0001:00024ad1       _initialize_global_state_isolation 10025ad1 f   libucrt:initialization.obj
 0001:00024ad1       _uninitialize_global_state_isolation 10025ad1 f   libucrt:initialization.obj
 0001:00024ad1       _initialize_environment    10025ad1 f   libucrt:initialization.obj
 0001:00024ad4       _uninitialize_environment  10025ad4 f   libucrt:initialization.obj
 0001:00024adc       _initialize_pointers       10025adc f   libucrt:initialization.obj
 0001:00024b19       _uninitialize_vcruntime    10025b19 f   libucrt:initialization.obj
 0001:00024b22       _uninitialize_allocated_memory 10025b22 f   libucrt:initialization.obj
 0001:00025025       ?construct_ptd@@YAXQAU__acrt_ptd@@QAPAU__crt_locale_data@@@Z 10026025 f   libucrt:per_thread_data.obj
 0001:0002509e       ?destroy_fls@@YGXPAX@Z     1002609e f   libucrt:per_thread_data.obj
 0001:000250bf       ?destroy_ptd@@YAXQAU__acrt_ptd@@@Z 100260bf f   libucrt:per_thread_data.obj
 0001:00025168       ?replace_current_thread_locale_nolock@@YAXQAU__acrt_ptd@@QAU__crt_locale_data@@@Z 10026168 f   libucrt:per_thread_data.obj
 0001:000253e5       ?try_get_CompareStringEx@@YAP6GHPB_WK0H0HPAU_nlsversioninfo@@PAXJ@ZXZ 100263e5 f   libucrt:winapi_thunks.obj
 0001:000253ff       ?try_get_MessageBoxA@@YAP6GHPAUHWND__@@PBD1I@ZXZ 100263ff f   libucrt:winapi_thunks.obj
 0001:00025419       ?try_get_MessageBoxW@@YAP6GHPAUHWND__@@PB_W1I@ZXZ 10026419 f   libucrt:winapi_thunks.obj
 0001:00025433       ?try_get_function@@YAPAXW4function_id@?A0x352e5c4b@@QBDQBW4module_id@2@2@Z 10026433 f   libucrt:winapi_thunks.obj
 0001:000254cf       ?try_get_module@@YAPAUHINSTANCE__@@W4module_id@?A0x352e5c4b@@@Z 100264cf f   libucrt:winapi_thunks.obj
 0001:00025cba       _common_flush_all          10026cba f   libucrt:fflush.obj
 0001:00025e29       ?initialize_inherited_file_handles_nolock@@YAXXZ 10026e29 f   libucrt:ioinit.obj
 0001:00025edf       ?initialize_stdio_handles_nolock@@YAXXZ 10026edf f   libucrt:ioinit.obj
 0001:00026788       ?fp_format_a@@YAHQBNPADIQADIH_NIQAU__crt_locale_pointers@@@Z 10027788 f   libucrt:cvt.obj
 0001:00026a8b       ?fp_format_e@@YAHQBNQADI1IH_NIQAU__crt_locale_pointers@@@Z 10027a8b f   libucrt:cvt.obj
 0001:00026b26       ?fp_format_e_internal@@YAHQADIH_NIQAU_strflt@@1QAU__crt_locale_pointers@@@Z 10027b26 f   libucrt:cvt.obj
 0001:00026c71       ?fp_format_f@@YAHQBNQADI1IHQAU__crt_locale_pointers@@@Z 10027c71 f   libucrt:cvt.obj
 0001:00026cfe       ?fp_format_f_internal@@YAHQADIHQAU_strflt@@_NQAU__crt_locale_pointers@@@Z 10027cfe f   libucrt:cvt.obj
 0001:00026dd5       ?fp_format_g@@YAHQBNQADI1IH_NIQAU__crt_locale_pointers@@@Z 10027dd5 f   libucrt:cvt.obj
 0001:00026e9d       ?fp_format_nan_or_infinity@@YAHW4__acrt_fp_class@@_NPADI1@Z 10027e9d f   libucrt:cvt.obj
 0001:00026f95       ?shift_bytes@@YAXQADI0H@Z  10027f95 f   libucrt:cvt.obj
 0001:00027113       ?fputwc_binary_nolock@@YAG_WV__crt_stdio_stream@@@Z 10028113 f   libucrt:fputwc.obj
 0001:0002788a       ??$common_xtox@K_W@@YAHKQA_WII_N@Z 1002888a f   libucrt:xtoa.obj
 0001:00027918       ??$common_xtox_s@K_W@@YAHKQA_WII_N@Z 10028918 f   libucrt:xtoa.obj
 0001:00027a60       ??$common_tcsncat_s@_W@@YAHQA_WIQB_WI@Z 10028a60 f   libucrt:wcsncat_s.obj
 0001:00027b54       ??$common_show_message_box@_W@@YAHQB_W0I@Z 10028b54 f   libucrt:crtmbox.obj
 0001:00027c2d       ??$message_box_wait_thread@_W@@YGKQAX@Z 10028c2d f   libucrt:crtmbox.obj
 0001:00027cd3       ??R<lambda_b721fa326cdb32351d23dfa67958c160>@@QBEHXZ 10028cd3 f   libucrt:setvbuf.obj
 0001:00027d6d       ?set_buffer@@YAHV__crt_stdio_stream@@QADIH@Z 10028d6d f   libucrt:setvbuf.obj
 0001:00027e98       ?get_global_action_nolock@@YAPAP6AXH@ZH@Z 10028e98 f   libucrt:signal.obj
 0001:00027eda       ?siglookup@@YAPAU__crt_signal_action_t@@HQAU1@@Z 10028eda f   libucrt:signal.obj
 0001:0002827d       ?__acrt_LCMapStringA_stat@@YAHPAU__crt_locale_pointers@@PB_WKPBDHPADHHH@Z 1002927d f   libucrt:lcmapstringa.obj
 0001:00028510       ?<helper_func_cdecl>@<lambda_62bb7ecb46d0a77b591a051c43eb5ad1>@@CAHPBX0@Z 10029510 f   libucrt:argv_wildcards.obj
 0001:00028528       ??$common_expand_argv_wildcards@D@@YAHQAPADQAPAPAD@Z 10029528 f   libucrt:argv_wildcards.obj
 0001:000286b8       ??$copy_and_add_argument_to_buffer@D@@YAHQBD0IAAV?$argument_list@D@?A0xb0e4b824@@@Z 100296b8 f   libucrt:argv_wildcards.obj
 0001:0002874e       ??$expand_argument_wildcards@D@@YAHQAD0AAV?$argument_list@D@?A0xb0e4b824@@@Z 1002974e f   libucrt:argv_wildcards.obj
 0001:00028a29       ??R<lambda_ad1ced32f4ac17aa236e5ef05d6b3b7c>@@QBEXXZ 10029a29 f   libucrt:mbctype.obj
 0001:00028aed       ?CPtoLocaleName@@YAPB_WH@Z 10029aed f   libucrt:mbctype.obj
 0001:00028b2b       ?getSystemCP@@YAHH@Z       10029b2b f   libucrt:mbctype.obj
 0001:00028b9e       ?setSBCS@@YAXPAU__crt_multibyte_data@@@Z 10029b9e f   libucrt:mbctype.obj
 0001:00028c03       ?setSBUpLow@@YAXPAU__crt_multibyte_data@@@Z 10029c03 f   libucrt:mbctype.obj
 0001:00028d97       ?setmbcp_internal@@YAHH_N@Z 10029d97 f   libucrt:mbctype.obj
 0001:00029149       ?x_ismbbtype_l@@YAHPAU__crt_locale_pointers@@IHH@Z 1002a149 f   libucrt:ismbbyte.obj
 0001:000291d3       ?find_end_of_double_null_terminated_sequence@@YAPB_WQB_W@Z 1002a1d3 f   libucrt:get_environment_from_os.obj
 0001:0002928d       ??$common_set_variable_in_environment_nolock@D@@YAHQADH@Z 1002a28d f   libucrt:setenv.obj
 0001:000294c8       ??$copy_environment@D@@YAPAPADQAPAD@Z 1002a4c8 f   libucrt:setenv.obj
 0001:00029579       ??$find_in_environment_nolock@D@@YAHQBDI@Z 1002a579 f   libucrt:setenv.obj
 0001:00029caf       ?free_crt_array_internal@@YAXQAPBXI@Z 1002acaf f   libucrt:inittime.obj
 0001:00029eec       ?GetTableIndexFromLocaleName@@YAHPB_W@Z 1002aeec f   libucrt:lcidtoname_downlevel.obj
 0001:0002a1f9       ?write_double_translated_ansi_nolock@@YA?AUwrite_result@?A0x47fa6670@@HQBDI@Z 1002b1f9 f   libucrt:write.obj
 0001:0002a3ac       ?write_double_translated_unicode_nolock@@YA?AUwrite_result@?A0x47fa6670@@QBDI@Z 1002b3ac f   libucrt:write.obj
 0001:0002a419       ?write_requires_double_translation_nolock@@YA_NH@Z 1002b419 f   libucrt:write.obj
 0001:0002a48f       ?write_text_ansi_nolock@@YA?AUwrite_result@?A0x47fa6670@@HQBDI@Z 1002b48f f   libucrt:write.obj
 0001:0002a56e       ?write_text_utf16le_nolock@@YA?AUwrite_result@?A0x47fa6670@@HQBDI@Z 1002b56e f   libucrt:write.obj
 0001:0002a65c       ?write_text_utf8_nolock@@YA?AUwrite_result@?A0x47fa6670@@HQBDI@Z 1002b65c f   libucrt:write.obj
 0001:0002c18a       ??$common_flush_and_write_nolock@D@@YAHHV__crt_stdio_stream@@@Z 1002d18a f   libucrt:_flsbuf.obj
 0001:0002c29b       ??$common_flush_and_write_nolock@_W@@YAHHV__crt_stdio_stream@@@Z 1002d29b f   libucrt:_flsbuf.obj
 0001:0002c3b0       ??$write_buffer_nolock@D@@YA_NDV__crt_stdio_stream@@@Z 1002d3b0 f   libucrt:_flsbuf.obj
 0001:0002c47c       ??$write_buffer_nolock@_W@@YA_N_WV__crt_stdio_stream@@@Z 1002d47c f   libucrt:_flsbuf.obj
 0001:0002c6df       ?InternalCompareStringA@@YAHPAU__crt_locale_pointers@@PB_WKPBDH2HH@Z 1002d6df f   libucrt:comparestringa.obj
 0001:0002ca48       ___get_abstract_control_sse2 1002da48 f   libucrt:_fenvutils.obj
 0001:0002cac5       ___get_abstract_control_x87 1002dac5 f   libucrt:_fenvutils.obj
 0001:0002cb38       ___get_machine_control     1002db38 f   libucrt:_fenvutils.obj
 0001:0002cba9       ___get_machine_control_sse2 1002dba9 f   libucrt:_fenvutils.obj
 0001:0002cc29       ___get_machine_status_sse2 1002dc29 f   libucrt:_fenvutils.obj
 0001:0002cc8a       ___get_machine_status_x87  1002dc8a f   libucrt:_fenvutils.obj
 0001:0002cee0       ?shortsort@@YAXPAD0IP6AHPBX1@Z@Z 1002dee0 f   libucrt:qsort.obj
 0001:0002cf80       ?swap@@YAXPAD0I@Z          1002df80 f   libucrt:qsort.obj
 0001:0002d35a       ??$common_tcsncpy_s@D@@YAHQADIQBDI@Z 1002e35a f   libucrt:strncpy_s.obj
 0001:0002d420       $$000000                   1002e420     libucrt:strpbrk.obj
 0001:0002d504       ?initialize_multibyte@@YAHXZ 1002e504 f   libucrt:multibyte_initializer.obj
 0001:0002d746       ??$common_lseek@_J@@YA_JH_JH@Z 1002e746 f   libucrt:lseek.obj
 0001:0002d84b       ??$common_lseek_nolock@_J@@YA_JH_JH@Z 1002e84b f   libucrt:lseek.obj
 0001:0002da00       $$000000                   1002ea00     libucrt:log10.obj
 0001:0002db50       $$000000                   1002eb50     libucrt:ceil_pentium4.obj
 0001:0002dc70       $$000000                   1002ec70     libucrt:_strnicm.obj
 0001:0002de00       $$000000                   1002ee00     libucrt:log10_pentium4.obj
 0001:0002e090       $$000000                   1002f090     libucrt:87tran.obj
 0001:0002e290       $$000000                   1002f290     libucrt:87disp.obj
 0001:0002e490       $$000000                   1002f490     libucrt:common.obj
 0001:0002e620       $$000000                   1002f620     libucrt:genexcep.obj
 0001:0002f710       $$000000                   10030710     LIBCMT:ulldvrm.obj
 0001:0002f7b0       $$000000                   100307b0     LIBCMT:llmul.obj
 0001:0002f7f0       $$000000                   100307f0     LIBCMT:_sehprolg4gs_.obj
 0001:0002f850       $$000000                   10030850     LIBCMT:llshl.obj
 0001:0002f870       $$000000                   10030870     LIBCMT:ullshr.obj
 0001:0002f890       $$000000                   10030890     LIBCMT:lldvrm.obj
 0001:0002f970       $$000000                   10030970     LIBCMT:alloca16.obj
 0001:0002f9a0       $$000000                   100309a0     LIBCMT:chkstk.obj
 0001:0002f9d0       $$000000                   100309d0     LIBCMT:_ftol2_.obj
 0001:0002fa90       $$000000                   10030a90     libvcruntime:memcpy.obj
 0001:0002fcf4       TrailingUpVec              10030cf4     libvcruntime:memcpy.obj
 0001:0002fda0       TrailingDownVec            10030da0     libvcruntime:memcpy.obj
 0001:00030010       $$000000                   10031010     libvcruntime:strrchr.obj
 0001:00030150       $$000000                   10031150     LIBCMT:ulldiv.obj
 0001:000301c0       $$000000                   100311c0     LIBCMT:ullrem.obj
 0001:00030240       __unwindfunclet$?New@?$Factory@VFunctionTemplate@v8@@@imp@Nan@@SA?AV?$Local@VFunctionTemplate@v8@@@v8@@P6AXABV?$FunctionCallbackInfo@VValue@v8@@@3@@ZV?$Local@VValue@v8@@@5@V?$Local@VSignature@v8@@@5@@Z$0 10031240 f   node_usb.obj
 0001:00030249       __ehhandler$?New@?$Factory@VFunctionTemplate@v8@@@imp@Nan@@SA?AV?$Local@VFunctionTemplate@v8@@@v8@@P6AXABV?$FunctionCallbackInfo@VValue@v8@@@3@@ZV?$Local@VValue@v8@@@5@V?$Local@VSignature@v8@@@5@@Z 10031249 f   node_usb.obj
 0001:00030270       __unwindfunclet$?ThrowError@Nan@@YAXPBD@Z$0 10031270 f   device.obj
 0001:00030270       __unwindfunclet$?Error@Nan@@YA?AV?$Local@VValue@v8@@@v8@@PBD@Z$0 10031270 f   node_usb.obj
 0001:00030270       __unwindfunclet$?ThrowTypeError@Nan@@YAXPBD@Z$0 10031270 f   node_usb.obj
 0001:00030278       __ehhandler$?ThrowError@Nan@@YAXPBD@Z 10031278 f   device.obj
 0001:00030278       __ehhandler$?ThrowTypeError@Nan@@YAXPBD@Z 10031278 f   node_usb.obj
 0001:00030278       __ehhandler$?Error@Nan@@YA?AV?$Local@VValue@v8@@@v8@@PBD@Z 10031278 f   node_usb.obj
 0001:000302a0       __unwindfunclet$??1?$Persistent@VFunction@v8@@V?$NonCopyablePersistentTraits@VFunction@v8@@@2@@Nan@@QAE@XZ$0 100312a0 f   device.obj
 0001:000302a0       __unwindfunclet$??1?$Persistent@VObject@v8@@V?$NonCopyablePersistentTraits@VObject@v8@@@2@@Nan@@QAE@XZ$0 100312a0 f   node_usb.obj
 0001:000302a6       __ehhandler$??1?$Persistent@VFunction@v8@@V?$NonCopyablePersistentTraits@VFunction@v8@@@2@@Nan@@QAE@XZ 100312a6 f   device.obj
 0001:000302a6       __ehhandler$??1?$Persistent@VObject@v8@@V?$NonCopyablePersistentTraits@VObject@v8@@@2@@Nan@@QAE@XZ 100312a6 f   node_usb.obj
 0001:000302d0       __unwindfunclet$?SetDebugLevel@@YAXABV?$FunctionCallbackInfo@VValue@v8@@@Nan@@@Z$1 100312d0 f   node_usb.obj
 0001:000302d9       __unwindfunclet$?SetDebugLevel@@YAXABV?$FunctionCallbackInfo@VValue@v8@@@Nan@@@Z$0 100312d9 f   node_usb.obj
 0001:000302e1       __unwindfunclet$?SetDebugLevel@@YAXABV?$FunctionCallbackInfo@VValue@v8@@@Nan@@@Z$3 100312e1 f   node_usb.obj
 0001:000302e7       __unwindfunclet$?SetDebugLevel@@YAXABV?$FunctionCallbackInfo@VValue@v8@@@Nan@@@Z$2 100312e7 f   node_usb.obj
 0001:000302ed       __ehhandler$?SetDebugLevel@@YAXABV?$FunctionCallbackInfo@VValue@v8@@@Nan@@@Z 100312ed f   node_usb.obj
 0001:00030310       __unwindfunclet$?GetDeviceList@@YAXABV?$FunctionCallbackInfo@VValue@v8@@@Nan@@@Z$1 10031310 f   node_usb.obj
 0001:00030319       __unwindfunclet$?GetDeviceList@@YAXABV?$FunctionCallbackInfo@VValue@v8@@@Nan@@@Z$0 10031319 f   node_usb.obj
 0001:00030321       __unwindfunclet$?GetDeviceList@@YAXABV?$FunctionCallbackInfo@VValue@v8@@@Nan@@@Z$2 10031321 f   node_usb.obj
 0001:00030327       __unwindfunclet$?GetDeviceList@@YAXABV?$FunctionCallbackInfo@VValue@v8@@@Nan@@@Z$3 10031327 f   node_usb.obj
 0001:0003032d       __ehhandler$?GetDeviceList@@YAXABV?$FunctionCallbackInfo@VValue@v8@@@Nan@@@Z 1003132d f   node_usb.obj
 0001:00030350       __unwindfunclet$??__FhotplugThis@@YAXXZ$1 10031350 f   node_usb.obj
 0001:00030350       __unwindfunclet$??__Fdevice_constructor@@YAXXZ$1 10031350 f   device.obj
 0001:00030356       __ehhandler$??__Fdevice_constructor@@YAXXZ 10031356 f   device.obj
 0001:00030356       __ehhandler$??__FhotplugThis@@YAXXZ 10031356 f   node_usb.obj
 0001:00030380       __unwindfunclet$?handleHotplug@@YAXU?$pair@PAUlibusb_device@@W4libusb_hotplug_event@@@std@@@Z$0 10031380 f   node_usb.obj
 0001:00030388       __ehhandler$?handleHotplug@@YAXU?$pair@PAUlibusb_device@@W4libusb_hotplug_event@@@std@@@Z 10031388 f   node_usb.obj
 0001:000303b0       __unwindfunclet$?EnableHotplugEvents@@YAXABV?$FunctionCallbackInfo@VValue@v8@@@Nan@@@Z$0 100313b0 f   node_usb.obj
 0001:000303b0       __unwindfunclet$?begin@Device_SetInterface@@SAXABV?$FunctionCallbackInfo@VValue@v8@@@Nan@@@Z$0 100313b0 f   device.obj
 0001:000303b8       __ehhandler$?begin@Device_SetInterface@@SAXABV?$FunctionCallbackInfo@VValue@v8@@@Nan@@@Z 100313b8 f   device.obj
 0001:000303b8       __ehhandler$?EnableHotplugEvents@@YAXABV?$FunctionCallbackInfo@VValue@v8@@@Nan@@@Z 100313b8 f   node_usb.obj
 0001:000303e0       __unwindfunclet$?DisableHotplugEvents@@YAXABV?$FunctionCallbackInfo@VValue@v8@@@Nan@@@Z$0 100313e0 f   node_usb.obj
 0001:000303e8       __ehhandler$?DisableHotplugEvents@@YAXABV?$FunctionCallbackInfo@VValue@v8@@@Nan@@@Z 100313e8 f   node_usb.obj
 0001:00030410       __unwindfunclet$??$SetMethod@VObject@v8@@VLocal@2@@Nan@@YAXV?$Local@VObject@v8@@@v8@@PBDP6AXABV?$FunctionCallbackInfo@VValue@v8@@@0@@Z@Z$0 10031410 f   node_usb.obj
 0001:00030418       __ehhandler$??$SetMethod@VObject@v8@@VLocal@2@@Nan@@YAXV?$Local@VObject@v8@@@v8@@PBDP6AXABV?$FunctionCallbackInfo@VValue@v8@@@0@@Z@Z 10031418 f   node_usb.obj
 0001:00030440       __unwindfunclet$?SetPrototypeMethod@Nan@@YAXV?$Local@VFunctionTemplate@v8@@@v8@@PBDP6AXABV?$FunctionCallbackInfo@VValue@v8@@@1@@Z@Z$0 10031440 f   device.obj
 0001:00030448       __ehhandler$?SetPrototypeMethod@Nan@@YAXV?$Local@VFunctionTemplate@v8@@@v8@@PBDP6AXABV?$FunctionCallbackInfo@VValue@v8@@@1@@Z@Z 10031448 f   device.obj
 0001:00030470       __unwindfunclet$??1ObjectWrap@Nan@@UAE@XZ$1 10031470 f   device.obj
 0001:00030476       __ehhandler$??1ObjectWrap@Nan@@UAE@XZ 10031476 f   device.obj
 0001:000304a0       __unwindfunclet$??1Device@@UAE@XZ$0 100314a0 f   device.obj
 0001:000304a0       __unwindfunclet$??_GObjectWrap@Nan@@UAEPAXI@Z$0 100314a0 f   device.obj
 0001:000304a6       __unwindfunclet$??_GObjectWrap@Nan@@UAEPAXI@Z$2 100314a6 f   device.obj
 0001:000304a6       __unwindfunclet$??1Device@@UAE@XZ$2 100314a6 f   device.obj
 0001:000304ac       __ehhandler$??_GObjectWrap@Nan@@UAEPAXI@Z 100314ac f   device.obj
 0001:000304ac       __ehhandler$??1Device@@UAE@XZ 100314ac f   device.obj
 0001:000304d0       __unwindfunclet$??0Device@@IAE@PAUlibusb_device@@@Z$0 100314d0 f   device.obj
 0001:000304d8       __ehhandler$??0Device@@IAE@PAUlibusb_device@@@Z 100314d8 f   device.obj
 0001:00030500       __unwindfunclet$?get@Device@@SA?AV?$Local@VObject@v8@@@v8@@PAUlibusb_device@@@Z$0 10031500 f   device.obj
 0001:0003050f       __ehhandler$?get@Device@@SA?AV?$Local@VObject@v8@@@v8@@PAUlibusb_device@@@Z 1003150f f   device.obj
 0001:00030530       __unwindfunclet$?deviceConstructor@@YAXABV?$FunctionCallbackInfo@VValue@v8@@@Nan@@@Z$1 10031530 f   device.obj
 0001:00030539       __unwindfunclet$?deviceConstructor@@YAXABV?$FunctionCallbackInfo@VValue@v8@@@Nan@@@Z$0 10031539 f   device.obj
 0001:00030541       __unwindfunclet$?deviceConstructor@@YAXABV?$FunctionCallbackInfo@VValue@v8@@@Nan@@@Z$6 10031541 f   device.obj
 0001:00030547       __unwindfunclet$?deviceConstructor@@YAXABV?$FunctionCallbackInfo@VValue@v8@@@Nan@@@Z$7 10031547 f   device.obj
 0001:0003054d       __unwindfunclet$?deviceConstructor@@YAXABV?$FunctionCallbackInfo@VValue@v8@@@Nan@@@Z$4 1003154d f   device.obj
 0001:00030553       __ehhandler$?deviceConstructor@@YAXABV?$FunctionCallbackInfo@VValue@v8@@@Nan@@@Z 10031553 f   device.obj
 0001:00030580       __unwindfunclet$?Device_GetConfigDescriptor@@YAXABV?$FunctionCallbackInfo@VValue@v8@@@Nan@@@Z$1 10031580 f   device.obj
 0001:0003058c       __unwindfunclet$?Device_GetConfigDescriptor@@YAXABV?$FunctionCallbackInfo@VValue@v8@@@Nan@@@Z$0 1003158c f   device.obj
 0001:00030597       __unwindfunclet$?Device_GetConfigDescriptor@@YAXABV?$FunctionCallbackInfo@VValue@v8@@@Nan@@@Z$3 10031597 f   device.obj
 0001:0003059d       __unwindfunclet$?Device_GetConfigDescriptor@@YAXABV?$FunctionCallbackInfo@VValue@v8@@@Nan@@@Z$4 1003159d f   device.obj
 0001:000305a3       __unwindfunclet$?Device_GetConfigDescriptor@@YAXABV?$FunctionCallbackInfo@VValue@v8@@@Nan@@@Z$5 100315a3 f   device.obj
 0001:000305a9       __ehhandler$?Device_GetConfigDescriptor@@YAXABV?$FunctionCallbackInfo@VValue@v8@@@Nan@@@Z 100315a9 f   device.obj
 0001:000305d0       __unwindfunclet$?Device_Open@@YAXABV?$FunctionCallbackInfo@VValue@v8@@@Nan@@@Z$0 100315d0 f   device.obj
 0001:000305d0       __unwindfunclet$?begin@Device_ReleaseInterface@@SAXABV?$FunctionCallbackInfo@VValue@v8@@@Nan@@@Z$0 100315d0 f   device.obj
 0001:000305d0       __unwindfunclet$?begin@Device_SetConfiguration@@SAXABV?$FunctionCallbackInfo@VValue@v8@@@Nan@@@Z$0 100315d0 f   device.obj
 0001:000305d8       __ehhandler$?begin@Device_ReleaseInterface@@SAXABV?$FunctionCallbackInfo@VValue@v8@@@Nan@@@Z 100315d8 f   device.obj
 0001:000305d8       __ehhandler$?Device_Open@@YAXABV?$FunctionCallbackInfo@VValue@v8@@@Nan@@@Z 100315d8 f   device.obj
 0001:000305d8       __ehhandler$?begin@Device_SetConfiguration@@SAXABV?$FunctionCallbackInfo@VValue@v8@@@Nan@@@Z 100315d8 f   device.obj
 0001:00030600       __unwindfunclet$?Device_ClaimInterface@@YAXABV?$FunctionCallbackInfo@VValue@v8@@@Nan@@@Z$0 10031600 f   device.obj
 0001:00030600       __unwindfunclet$?AttachKernelDriver@@YAXABV?$FunctionCallbackInfo@VValue@v8@@@Nan@@@Z$0 10031600 f   device.obj
 0001:00030600       __unwindfunclet$?DetachKernelDriver@@YAXABV?$FunctionCallbackInfo@VValue@v8@@@Nan@@@Z$0 10031600 f   device.obj
 0001:00030600       __unwindfunclet$?Device_Close@@YAXABV?$FunctionCallbackInfo@VValue@v8@@@Nan@@@Z$0 10031600 f   device.obj
 0001:00030600       __unwindfunclet$?IsKernelDriverActive@@YAXABV?$FunctionCallbackInfo@VValue@v8@@@Nan@@@Z$0 10031600 f   device.obj
 0001:00030608       __ehhandler$?Device_ClaimInterface@@YAXABV?$FunctionCallbackInfo@VValue@v8@@@Nan@@@Z 10031608 f   device.obj
 0001:00030608       __ehhandler$?DetachKernelDriver@@YAXABV?$FunctionCallbackInfo@VValue@v8@@@Nan@@@Z 10031608 f   device.obj
 0001:00030608       __ehhandler$?IsKernelDriverActive@@YAXABV?$FunctionCallbackInfo@VValue@v8@@@Nan@@@Z 10031608 f   device.obj
 0001:00030608       __ehhandler$?AttachKernelDriver@@YAXABV?$FunctionCallbackInfo@VValue@v8@@@Nan@@@Z 10031608 f   device.obj
 0001:00030608       __ehhandler$?Device_Close@@YAXABV?$FunctionCallbackInfo@VValue@v8@@@Nan@@@Z 10031608 f   device.obj
 0001:00030630       __unwindfunclet$?default_after@Req@@SAXPAUuv_work_s@@@Z$0 10031630 f   device.obj
 0001:00030638       __unwindfunclet$?default_after@Req@@SAXPAUuv_work_s@@@Z$1 10031638 f   device.obj
 0001:00030640       __unwindfunclet$?default_after@Req@@SAXPAUuv_work_s@@@Z$8 10031640 f   device.obj
 0001:00030646       __ehhandler$?default_after@Req@@SAXPAUuv_work_s@@@Z 10031646 f   device.obj
 0001:00030670       __unwindfunclet$?begin@Device_Reset@@SAXABV?$FunctionCallbackInfo@VValue@v8@@@Nan@@@Z$0 10031670 f   device.obj
 0001:00030678       __ehhandler$?begin@Device_Reset@@SAXABV?$FunctionCallbackInfo@VValue@v8@@@Nan@@@Z 10031678 f   device.obj
 0001:000306a0       __unwindfunclet$?clear@?$_Tree@V?$_Tmap_traits@PAUlibusb_device@@V?$Persistent@VObject@v8@@V?$NonCopyablePersistentTraits@VObject@v8@@@2@@Nan@@U?$less@PAUlibusb_device@@@std@@V?$allocator@U?$pair@QAUlibusb_device@@V?$Persistent@VObject@v8@@V?$NonCopyablePersistentTraits@VObject@v8@@@2@@Nan@@@std@@@5@$0A@@std@@@std@@QAEXXZ$3 100316a0 f   device.obj
 0001:000306a0       __unwindfunclet$??$_Insert_at@AAU?$pair@QAUlibusb_device@@V?$Persistent@VObject@v8@@V?$NonCopyablePersistentTraits@VObject@v8@@@2@@Nan@@@std@@PAU?$_Tree_node@U?$pair@QAUlibusb_device@@V?$Persistent@VObject@v8@@V?$NonCopyablePersistentTraits@VObject@v8@@@2@@Nan@@@std@@PAX@2@@?$_Tree@V?$_Tmap_traits@PAUlibusb_device@@V?$Persistent@VObject@v8@@V?$NonCopyablePersistentTraits@VObject@v8@@@2@@Nan@@U?$less@PAUlibusb_device@@@std@@V?$allocator@U?$pair@QAUlibusb_device@@V?$Persistent@VObject@v8@@V?$NonCopyablePersistentTraits@VObject@v8@@@2@@Nan@@@std@@@5@$0A@@std@@@std@@IAE?AV?$_Tree_iterator@V?$_Tree_val@U?$_Tree_simple_types@U?$pair@QAUlibusb_device@@V?$Persistent@VObject@v8@@V?$NonCopyablePersistentTraits@VObject@v8@@@2@@Nan@@@std@@@std@@@std@@@1@_NPAU?$_Tree_node@U?$pair@QAUlibusb_device@@V?$Persistent@VObject@v8@@V?$NonCopyablePersistentTraits@VObject@v8@@@2@@Nan@@@std@@PAX@1@AAU?$pair@QAUlibusb_device@@V?$Persistent@VObject@v8@@V?$NonCopyablePersistentTraits@VObject@v8@@@2@@Nan@@@1@1@Z$3 100316a0 f   device.obj
 0001:000306a6       __ehhandler$?clear@?$_Tree@V?$_Tmap_traits@PAUlibusb_device@@V?$Persistent@VObject@v8@@V?$NonCopyablePersistentTraits@VObject@v8@@@2@@Nan@@U?$less@PAUlibusb_device@@@std@@V?$allocator@U?$pair@QAUlibusb_device@@V?$Persistent@VObject@v8@@V?$NonCopyablePersistentTraits@VObject@v8@@@2@@Nan@@@std@@@5@$0A@@std@@@std@@QAEXXZ 100316a6 f   device.obj
 0001:000306a6       __ehhandler$??$_Insert_at@AAU?$pair@QAUlibusb_device@@V?$Persistent@VObject@v8@@V?$NonCopyablePersistentTraits@VObject@v8@@@2@@Nan@@@std@@PAU?$_Tree_node@U?$pair@QAUlibusb_device@@V?$Persistent@VObject@v8@@V?$NonCopyablePersistentTraits@VObject@v8@@@2@@Nan@@@std@@PAX@2@@?$_Tree@V?$_Tmap_traits@PAUlibusb_device@@V?$Persistent@VObject@v8@@V?$NonCopyablePersistentTraits@VObject@v8@@@2@@Nan@@U?$less@PAUlibusb_device@@@std@@V?$allocator@U?$pair@QAUlibusb_device@@V?$Persistent@VObject@v8@@V?$NonCopyablePersistentTraits@VObject@v8@@@2@@Nan@@@std@@@5@$0A@@std@@@std@@IAE?AV?$_Tree_iterator@V?$_Tree_val@U?$_Tree_simple_types@U?$pair@QAUlibusb_device@@V?$Persistent@VObject@v8@@V?$NonCopyablePersistentTraits@VObject@v8@@@2@@Nan@@@std@@@std@@@std@@@1@_NPAU?$_Tree_node@U?$pair@QAUlibusb_device@@V?$Persistent@VObject@v8@@V?$NonCopyablePersistentTraits@VObject@v8@@@2@@Nan@@@std@@PAX@1@AAU?$pair@QAUlibusb_device@@V?$Persistent@VObject@v8@@V?$NonCopyablePersistentTraits@VObject@v8@@@2@@Nan@@@1@1@Z 100316a6 f   device.obj
 0001:000306d0       __unwindfunclet$?erase@?$_Tree@V?$_Tmap_traits@PAUlibusb_device@@V?$Persistent@VObject@v8@@V?$NonCopyablePersistentTraits@VObject@v8@@@2@@Nan@@U?$less@PAUlibusb_device@@@std@@V?$allocator@U?$pair@QAUlibusb_device@@V?$Persistent@VObject@v8@@V?$NonCopyablePersistentTraits@VObject@v8@@@2@@Nan@@@std@@@5@$0A@@std@@@std@@QAE?AV?$_Tree_iterator@V?$_Tree_val@U?$_Tree_simple_types@U?$pair@QAUlibusb_device@@V?$Persistent@VObject@v8@@V?$NonCopyablePersistentTraits@VObject@v8@@@2@@Nan@@@std@@@std@@@std@@@2@V?$_Tree_const_iterator@V?$_Tree_val@U?$_Tree_simple_types@U?$pair@QAUlibusb_device@@V?$Persistent@VObject@v8@@V?$NonCopyablePersistentTraits@VObject@v8@@@2@@Nan@@@std@@@std@@@std@@@2@@Z$3 100316d0 f   device.obj
 0001:000306d6       __ehhandler$?erase@?$_Tree@V?$_Tmap_traits@PAUlibusb_device@@V?$Persistent@VObject@v8@@V?$NonCopyablePersistentTraits@VObject@v8@@@2@@Nan@@U?$less@PAUlibusb_device@@@std@@V?$allocator@U?$pair@QAUlibusb_device@@V?$Persistent@VObject@v8@@V?$NonCopyablePersistentTraits@VObject@v8@@@2@@Nan@@@std@@@5@$0A@@std@@@std@@QAE?AV?$_Tree_iterator@V?$_Tree_val@U?$_Tree_simple_types@U?$pair@QAUlibusb_device@@V?$Persistent@VObject@v8@@V?$NonCopyablePersistentTraits@VObject@v8@@@2@@Nan@@@std@@@std@@@std@@@2@V?$_Tree_const_iterator@V?$_Tree_val@U?$_Tree_simple_types@U?$pair@QAUlibusb_device@@V?$Persistent@VObject@v8@@V?$NonCopyablePersistentTraits@VObject@v8@@@2@@Nan@@@std@@@std@@@std@@@2@@Z 100316d6 f   device.obj
 0001:00030700       __unwindfunclet$?_Erase@?$_Tree@V?$_Tmap_traits@PAUlibusb_device@@V?$Persistent@VObject@v8@@V?$NonCopyablePersistentTraits@VObject@v8@@@2@@Nan@@U?$less@PAUlibusb_device@@@std@@V?$allocator@U?$pair@QAUlibusb_device@@V?$Persistent@VObject@v8@@V?$NonCopyablePersistentTraits@VObject@v8@@@2@@Nan@@@std@@@5@$0A@@std@@@std@@IAEXPAU?$_Tree_node@U?$pair@QAUlibusb_device@@V?$Persistent@VObject@v8@@V?$NonCopyablePersistentTraits@VObject@v8@@@2@@Nan@@@std@@PAX@2@@Z$3 10031700 f   device.obj
 0001:00030706       __ehhandler$?_Erase@?$_Tree@V?$_Tmap_traits@PAUlibusb_device@@V?$Persistent@VObject@v8@@V?$NonCopyablePersistentTraits@VObject@v8@@@2@@Nan@@U?$less@PAUlibusb_device@@@std@@V?$allocator@U?$pair@QAUlibusb_device@@V?$Persistent@VObject@v8@@V?$NonCopyablePersistentTraits@VObject@v8@@@2@@Nan@@@std@@@5@$0A@@std@@@std@@IAEXPAU?$_Tree_node@U?$pair@QAUlibusb_device@@V?$Persistent@VObject@v8@@V?$NonCopyablePersistentTraits@VObject@v8@@@2@@Nan@@@std@@PAX@2@@Z 10031706 f   device.obj
 0001:00030730       __ehhandler$??$invokeparameter@$00@?$WeakCallbackInfo@Ulibusb_device@@@Nan@@CAXABV?$WeakCallbackInfo@V?$WeakCallbackInfo@Ulibusb_device@@@Nan@@@v8@@@Z 10031730 f   device.obj
 0001:00030750       __unwindfunclet$??$_Buynode@U?$pair@PAUlibusb_device@@V?$Local@VObject@v8@@@v8@@@std@@@?$_Tree_comp_alloc@V?$_Tmap_traits@PAUlibusb_device@@V?$Persistent@VObject@v8@@V?$NonCopyablePersistentTraits@VObject@v8@@@2@@Nan@@U?$less@PAUlibusb_device@@@std@@V?$allocator@U?$pair@QAUlibusb_device@@V?$Persistent@VObject@v8@@V?$NonCopyablePersistentTraits@VObject@v8@@@2@@Nan@@@std@@@5@$0A@@std@@@std@@QAEPAU?$_Tree_node@U?$pair@QAUlibusb_device@@V?$Persistent@VObject@v8@@V?$NonCopyablePersistentTraits@VObject@v8@@@2@@Nan@@@std@@PAX@1@$$QAU?$pair@PAUlibusb_device@@V?$Local@VObject@v8@@@v8@@@1@@Z$0 10031750 f   device.obj
 0001:00030755       __ehhandler$??$_Buynode@U?$pair@PAUlibusb_device@@V?$Local@VObject@v8@@@v8@@@std@@@?$_Tree_comp_alloc@V?$_Tmap_traits@PAUlibusb_device@@V?$Persistent@VObject@v8@@V?$NonCopyablePersistentTraits@VObject@v8@@@2@@Nan@@U?$less@PAUlibusb_device@@@std@@V?$allocator@U?$pair@QAUlibusb_device@@V?$Persistent@VObject@v8@@V?$NonCopyablePersistentTraits@VObject@v8@@@2@@Nan@@@std@@@5@$0A@@std@@@std@@QAEPAU?$_Tree_node@U?$pair@QAUlibusb_device@@V?$Persistent@VObject@v8@@V?$NonCopyablePersistentTraits@VObject@v8@@@2@@Nan@@@std@@PAX@1@$$QAU?$pair@PAUlibusb_device@@V?$Local@VObject@v8@@@v8@@@1@@Z 10031755 f   device.obj
 0001:00030770       __unwindfunclet$??$_Insert_nohint@AAU?$pair@QAUlibusb_device@@V?$Persistent@VObject@v8@@V?$NonCopyablePersistentTraits@VObject@v8@@@2@@Nan@@@std@@PAU?$_Tree_node@U?$pair@QAUlibusb_device@@V?$Persistent@VObject@v8@@V?$NonCopyablePersistentTraits@VObject@v8@@@2@@Nan@@@std@@PAX@2@@?$_Tree@V?$_Tmap_traits@PAUlibusb_device@@V?$Persistent@VObject@v8@@V?$NonCopyablePersistentTraits@VObject@v8@@@2@@Nan@@U?$less@PAUlibusb_device@@@std@@V?$allocator@U?$pair@QAUlibusb_device@@V?$Persistent@VObject@v8@@V?$NonCopyablePersistentTraits@VObject@v8@@@2@@Nan@@@std@@@5@$0A@@std@@@std@@IAE?AU?$pair@V?$_Tree_iterator@V?$_Tree_val@U?$_Tree_simple_types@U?$pair@QAUlibusb_device@@V?$Persistent@VObject@v8@@V?$NonCopyablePersistentTraits@VObject@v8@@@2@@Nan@@@std@@@std@@@std@@@std@@_N@1@_NAAU?$pair@QAUlibusb_device@@V?$Persistent@VObject@v8@@V?$NonCopyablePersistentTraits@VObject@v8@@@2@@Nan@@@1@PAU?$_Tree_node@U?$pair@QAUlibusb_device@@V?$Persistent@VObject@v8@@V?$NonCopyablePersistentTraits@VObject@v8@@@2@@Nan@@@std@@PAX@1@@Z$3 10031770 f   device.obj
 0001:00030776       __ehhandler$??$_Insert_nohint@AAU?$pair@QAUlibusb_device@@V?$Persistent@VObject@v8@@V?$NonCopyablePersistentTraits@VObject@v8@@@2@@Nan@@@std@@PAU?$_Tree_node@U?$pair@QAUlibusb_device@@V?$Persistent@VObject@v8@@V?$NonCopyablePersistentTraits@VObject@v8@@@2@@Nan@@@std@@PAX@2@@?$_Tree@V?$_Tmap_traits@PAUlibusb_device@@V?$Persistent@VObject@v8@@V?$NonCopyablePersistentTraits@VObject@v8@@@2@@Nan@@U?$less@PAUlibusb_device@@@std@@V?$allocator@U?$pair@QAUlibusb_device@@V?$Persistent@VObject@v8@@V?$NonCopyablePersistentTraits@VObject@v8@@@2@@Nan@@@std@@@5@$0A@@std@@@std@@IAE?AU?$pair@V?$_Tree_iterator@V?$_Tree_val@U?$_Tree_simple_types@U?$pair@QAUlibusb_device@@V?$Persistent@VObject@v8@@V?$NonCopyablePersistentTraits@VObject@v8@@@2@@Nan@@@std@@@std@@@std@@@std@@_N@1@_NAAU?$pair@QAUlibusb_device@@V?$Persistent@VObject@v8@@V?$NonCopyablePersistentTraits@VObject@v8@@@2@@Nan@@@1@PAU?$_Tree_node@U?$pair@QAUlibusb_device@@V?$Persistent@VObject@v8@@V?$NonCopyablePersistentTraits@VObject@v8@@@2@@Nan@@@std@@PAX@1@@Z 10031776 f   device.obj
 0001:000307a0       __unwindfunclet$??$invokeparameter@$0A@@?$WeakCallbackInfo@Ulibusb_device@@@Nan@@CAXABV?$WeakCallbackInfo@V?$WeakCallbackInfo@Ulibusb_device@@@Nan@@@v8@@@Z$2 100317a0 f   device.obj
 0001:000307a6       __ehhandler$??$invokeparameter@$0A@@?$WeakCallbackInfo@Ulibusb_device@@@Nan@@CAXABV?$WeakCallbackInfo@V?$WeakCallbackInfo@Ulibusb_device@@@Nan@@@v8@@@Z 100317a6 f   device.obj
 0001:000307d0       __unwindfunclet$??0Transfer@@QAE@XZ$0 100317d0 f   transfer.obj
 0001:000307d8       __unwindfunclet$??0Transfer@@QAE@XZ$1 100317d8 f   transfer.obj
 0001:000307dd       __unwindfunclet$??0Transfer@@QAE@XZ$2 100317dd f   transfer.obj
 0001:000307e2       __ehhandler$??0Transfer@@QAE@XZ 100317e2 f   transfer.obj
 0001:00030800       __unwindfunclet$??1Transfer@@UAE@XZ$0 10031800 f   transfer.obj
 0001:00030806       __unwindfunclet$??1Transfer@@UAE@XZ$1 10031806 f   transfer.obj
 0001:0003080c       __unwindfunclet$??1Transfer@@UAE@XZ$2 1003180c f   transfer.obj
 0001:00030812       __unwindfunclet$??1Transfer@@UAE@XZ$3 10031812 f   transfer.obj
 0001:00030818       __unwindfunclet$??1Transfer@@UAE@XZ$4 10031818 f   transfer.obj
 0001:0003081e       __unwindfunclet$??1Transfer@@UAE@XZ$5 1003181e f   transfer.obj
 0001:00030824       __unwindfunclet$??1Transfer@@UAE@XZ$6 10031824 f   transfer.obj
 0001:0003082a       __ehhandler$??1Transfer@@UAE@XZ 1003182a f   transfer.obj
 0001:00030850       __unwindfunclet$?Transfer_constructor@@YAXABV?$FunctionCallbackInfo@VValue@v8@@@Nan@@@Z$0 10031850 f   transfer.obj
 0001:00030858       __unwindfunclet$?Transfer_constructor@@YAXABV?$FunctionCallbackInfo@VValue@v8@@@Nan@@@Z$1 10031858 f   transfer.obj
 0001:00030867       __ehhandler$?Transfer_constructor@@YAXABV?$FunctionCallbackInfo@VValue@v8@@@Nan@@@Z 10031867 f   transfer.obj
 0001:00030890       __unwindfunclet$?Transfer_Cancel@@YAXABV?$FunctionCallbackInfo@VValue@v8@@@Nan@@@Z$0 10031890 f   transfer.obj
 0001:00030890       __unwindfunclet$?Transfer_Submit@@YAXABV?$FunctionCallbackInfo@VValue@v8@@@Nan@@@Z$0 10031890 f   transfer.obj
 0001:00030898       __ehhandler$?Transfer_Cancel@@YAXABV?$FunctionCallbackInfo@VValue@v8@@@Nan@@@Z 10031898 f   transfer.obj
 0001:00030898       __ehhandler$?Transfer_Submit@@YAXABV?$FunctionCallbackInfo@VValue@v8@@@Nan@@@Z 10031898 f   transfer.obj
 0001:000308c0       __unwindfunclet$?handleCompletion@@YAXPAUTransfer@@@Z$0 100318c0 f   transfer.obj
 0001:000308c8       __unwindfunclet$?handleCompletion@@YAXPAUTransfer@@@Z$1 100318c8 f   transfer.obj
 0001:000308d0       __ehhandler$?handleCompletion@@YAXPAUTransfer@@@Z 100318d0 f   transfer.obj
 0001:000308f5       __ehhandler$?CallUnexpected@@YAXPBU_s_ESTypeList@@@Z 100318f5 f   libvcruntime:frame.obj
 0001:00030910       ??__FhotplugThis@@YAXXZ    10031910 f   node_usb.obj
 0001:00030950       ??__FhotplugQueue@@YAXXZ   10031950 f   node_usb.obj
 0001:000309b0       ??__Fdevice_constructor@@YAXXZ 100319b0 f   device.obj
 0001:000309f0       ??__F?byPtr@Device@@1V?$map@PAUlibusb_device@@V?$Persistent@VObject@v8@@V?$NonCopyablePersistentTraits@VObject@v8@@@2@@Nan@@U?$less@PAUlibusb_device@@@std@@V?$allocator@U?$pair@QAUlibusb_device@@V?$Persistent@VObject@v8@@V?$NonCopyablePersistentTraits@VObject@v8@@@2@@Nan@@@std@@@5@@std@@A@@YAXXZ 100319f0 f   device.obj
 0001:00030a30       ??__FcompletionQueue@@YAXXZ 10031a30 f   transfer.obj
 0002:00000310       ?hotplugThis$initializer$@@3P6AXXZA 10032310     node_usb.obj
 0002:00000314       ?hotplugQueue$initializer$@@3P6AXXZA 10032314     node_usb.obj
 0002:00000318       ?device_constructor$initializer$@@3P6AXXZA 10032318     device.obj
 0002:0000031c       ??byPtr$initializer$@Device@@1P6AXXZA@@3P6AXXZA 1003231c     device.obj
 0002:00000320       ?completionQueue$initializer$@@3P6AXXZA 10032320     transfer.obj
 0002:000003b8       _GS_ExceptionPointers      100323b8     LIBCMT:gs_report.obj
 0002:0000040c       ?ExceptionTemplate@?1??_CxxThrowException@@9@8@4UEHExceptionRecord@@B 1003240c     libvcruntime:throw.obj
 0002:0000042c       ?module_names@?A0x89697e75@@3QBQB_WB 1003242c     libvcruntime:winapi_downlevel.obj
 0002:000004dc       ?candidate_modules@?1??try_get_FlsAlloc@@YAP6GKP6GXPAX@Z@ZXZ@4QBW4module_id@?A0x89697e75@@B 100324dc     libvcruntime:winapi_downlevel.obj
 0002:000004f0       ?candidate_modules@?1??try_get_FlsFree@@YAP6GHK@ZXZ@4QBW4module_id@?A0x89697e75@@B 100324f0     libvcruntime:winapi_downlevel.obj
 0002:00000500       ?candidate_modules@?1??try_get_FlsGetValue@@YAP6GPAXK@ZXZ@4QBW4module_id@?A0x89697e75@@B 10032500     libvcruntime:winapi_downlevel.obj
 0002:00000514       ?candidate_modules@?1??try_get_FlsSetValue@@YAP6GHKPAX@ZXZ@4QBW4module_id@?A0x89697e75@@B 10032514     libvcruntime:winapi_downlevel.obj
 0002:00000528       ?candidate_modules@?1??try_get_InitializeCriticalSectionEx@@YAP6GHPAU_RTL_CRITICAL_SECTION@@KK@ZXZ@4QBW4module_id@?A0x89697e75@@B 10032528     libvcruntime:winapi_downlevel.obj
 0002:00000550       ?tokenTable@@3QBQBDB       10032550     libvcruntime:undname.obj
 0002:00000588       ?nameTable@@3QBQBDB        10032588     libvcruntime:undname.obj
 0002:000006cc       ?rttiTable@@3QBQBDB        100326cc     libvcruntime:undname.obj
 0002:00000d28       _errtable                  10032d28     libucrt:errno.obj
 0002:00001de0       ___acrt_initializers       10033de0     libucrt:initialization.obj
 0002:00002320       _module_names              10034320     libucrt:winapi_thunks.obj
 0002:000027c0       ?candidate_modules@?1??try_get_CompareStringEx@@YAP6GHPB_WK0H0HPAU_nlsversioninfo@@PAXJ@ZXZ@4QBW4module_id@?A0x352e5c4b@@B 100347c0     libucrt:winapi_thunks.obj
 0002:000027d8       ?candidate_modules@?1??try_get_FlsAlloc@@YAP6GKP6GXPAX@Z@ZXZ@4QBW4module_id@?A0x352e5c4b@@B 100347d8     libucrt:winapi_thunks.obj
 0002:000027e0       ?candidate_modules@?1??try_get_FlsFree@@YAP6GHK@ZXZ@4QBW4module_id@?A0x352e5c4b@@B 100347e0     libucrt:winapi_thunks.obj
 0002:000027e8       ?candidate_modules@?1??try_get_FlsGetValue@@YAP6GPAXK@ZXZ@4QBW4module_id@?A0x352e5c4b@@B 100347e8     libucrt:winapi_thunks.obj
 0002:000027f0       ?candidate_modules@?1??try_get_FlsSetValue@@YAP6GHKPAX@ZXZ@4QBW4module_id@?A0x352e5c4b@@B 100347f0     libucrt:winapi_thunks.obj
 0002:000027f8       ?candidate_modules@?1??try_get_GetActiveWindow@@YAP6GPAUHWND__@@XZXZ@4QBW4module_id@?A0x352e5c4b@@B 100347f8     libucrt:winapi_thunks.obj
 0002:00002810       ?candidate_modules@?1??try_get_GetCurrentPackageId@@YAP6GJPAIPAE@ZXZ@4QBW4module_id@?A0x352e5c4b@@B 10034810     libucrt:winapi_thunks.obj
 0002:0000282c       ?candidate_modules@?1??try_get_GetLastActivePopup@@YAP6GPAUHWND__@@PAU2@@ZXZ@4QBW4module_id@?A0x352e5c4b@@B 1003482c     libucrt:winapi_thunks.obj
 0002:00002848       ?candidate_modules@?1??try_get_GetProcessWindowStation@@YAP6GPAUHWINSTA__@@XZXZ@4QBW4module_id@?A0x352e5c4b@@B 10034848     libucrt:winapi_thunks.obj
 0002:00002868       ?candidate_modules@?1??try_get_GetUserObjectInformationW@@YAP6GHPAXH0KPAK@ZXZ@4QBW4module_id@?A0x352e5c4b@@B 10034868     libucrt:winapi_thunks.obj
 0002:0000288c       ?candidate_modules@?1??try_get_InitializeCriticalSectionEx@@YAP6GHPAU_RTL_CRITICAL_SECTION@@KK@ZXZ@4QBW4module_id@?A0x352e5c4b@@B 1003488c     libucrt:winapi_thunks.obj
 0002:00002894       ?candidate_modules@?1??try_get_LCMapStringEx@@YAP6GHPB_WK0HPA_WHPAU_nlsversioninfo@@PAXJ@ZXZ@4QBW4module_id@?A0x352e5c4b@@B 10034894     libucrt:winapi_thunks.obj
 0002:000028ac       ?candidate_modules@?1??try_get_LocaleNameToLCID@@YAP6GKPB_WK@ZXZ@4QBW4module_id@?A0x352e5c4b@@B 100348ac     libucrt:winapi_thunks.obj
 0002:000028c8       ?candidate_modules@?1??try_get_MessageBoxA@@YAP6GHPAUHWND__@@PBD1I@ZXZ@4QBW4module_id@?A0x352e5c4b@@B 100348c8     libucrt:winapi_thunks.obj
 0002:000028dc       ?candidate_modules@?1??try_get_MessageBoxW@@YAP6GHPAUHWND__@@PB_W1I@ZXZ@4QBW4module_id@?A0x352e5c4b@@B 100348dc     libucrt:winapi_thunks.obj
 0002:000028f0       ?candidate_modules@?1??try_get_RoInitialize@@YAP6GJW4RO_INIT_TYPE@@@ZXZ@4QBW4module_id@?A0x352e5c4b@@B 100348f0     libucrt:winapi_thunks.obj
 0002:00002904       ?candidate_modules@?1??try_get_RoUninitialize@@YAP6GXXZXZ@4QBW4module_id@?A0x352e5c4b@@B 10034904     libucrt:winapi_thunks.obj
 0002:00003168       __mb_locale_names          10035168     libucrt:mbctype.obj
 0002:000031b0       _LcidToLocaleNameTable     100351b0     libucrt:lcidtoname_downlevel.obj
 0002:000042d0       _LocaleNameToIndexTable    100362d0     libucrt:lcidtoname_downlevel.obj
 0002:00005250       LOG_name                   10037250     libucrt:log10.obj
 0002:00005260       _One                       10037260     libucrt:ceil_pentium4.obj
 0002:00005270       _Bns                       10037270     libucrt:ceil_pentium4.obj
 0002:00005280       _Zero                      10037280     libucrt:ceil_pentium4.obj
 0002:00005290       _S                         10037290     libucrt:ceil_pentium4.obj
 0002:000052a0       _NegZero                   100372a0     libucrt:ceil_pentium4.obj
 0002:000052c0       emask                      100372c0     libucrt:log10_pentium4.obj
 0002:000052d0       CC                         100372d0     libucrt:log10_pentium4.obj
 0002:000052e0       Magic                      100372e0     libucrt:log10_pentium4.obj
 0002:000052f0       hi_mask                    100372f0     libucrt:log10_pentium4.obj
 0002:00005300       LOG10_2                    10037300     libucrt:log10_pentium4.obj
 0002:00005310       place_L                    10037310     libucrt:log10_pentium4.obj
 0002:00005330       One                        10037330     libucrt:log10_pentium4.obj
 0002:00005340       Zero                       10037340     libucrt:log10_pentium4.obj
 0002:00005350       Two52                      10037350     libucrt:log10_pentium4.obj
 0002:00005360       Infs                       10037360     libucrt:log10_pentium4.obj
 0002:00005370       NaN                        10037370     libucrt:log10_pentium4.obj
 0002:00005380       coeff                      10037380     libucrt:log10_pentium4.obj
 0002:000053de       _log2max                   100373de     libucrt:87tran.obj
 0002:000053e8       _smallarg                  100373e8     libucrt:87tran.obj
 0002:000053f2       _half                      100373f2     libucrt:87tran.obj
 0002:0000543e       One                        1003743e     libucrt:87disp.obj
 0002:00005446       Three                      10037446     libucrt:87disp.obj
 0002:0000544e       XAMtoTagTab                1003744e     libucrt:87disp.obj
 0002:00005460       One                        10037460     libucrt:common.obj
 0002:00005474       DblMax                     10037474     libucrt:common.obj
 0002:0000547c       DblMin                     1003747c     libucrt:common.obj
 0002:00005484       IeeeAdjO                   10037484     libucrt:common.obj
 0002:0000548c       IeeeAdjU                   1003748c     libucrt:common.obj
 0002:00005494       _infinity                  10037494     libucrt:common.obj
 0002:0000549c       _zero                      1003749c     libucrt:common.obj
 0002:000054d0       _over                      100374d0     libucrt:fpctrl.obj
 0002:000054dc       _under                     100374dc     libucrt:fpctrl.obj
 0002:00005da8       ?_names@?1??_get_fname@@9@9 10037da8     libucrt:fpexcept.obj
 0002:000074d0       _libusb_version_internal   100394d0     libusb:core.obj
 0002:00007750       ?enum_classes@?1??message_callback_handle_device_change@@9@9 10039750     libusb:windows_usb.obj
 0002:0000cc68       __unwindtable$?New@?$Factory@VFunctionTemplate@v8@@@imp@Nan@@SA?AV?$Local@VFunctionTemplate@v8@@@v8@@P6AXABV?$FunctionCallbackInfo@VValue@v8@@@3@@ZV?$Local@VValue@v8@@@5@V?$Local@VSignature@v8@@@5@@Z 1003ec68     node_usb.obj
 0002:0000cc70       __ehfuncinfo$?New@?$Factory@VFunctionTemplate@v8@@@imp@Nan@@SA?AV?$Local@VFunctionTemplate@v8@@@v8@@P6AXABV?$FunctionCallbackInfo@VValue@v8@@@3@@ZV?$Local@VValue@v8@@@5@V?$Local@VSignature@v8@@@5@@Z 1003ec70     node_usb.obj
 0002:0000cc94       __unwindtable$?ThrowTypeError@Nan@@YAXPBD@Z 1003ec94     node_usb.obj
 0002:0000cc94       __unwindtable$?ThrowError@Nan@@YAXPBD@Z 1003ec94     device.obj
 0002:0000cc94       __unwindtable$?Error@Nan@@YA?AV?$Local@VValue@v8@@@v8@@PBD@Z 1003ec94     node_usb.obj
 0002:0000cc9c       __ehfuncinfo$?Error@Nan@@YA?AV?$Local@VValue@v8@@@v8@@PBD@Z 1003ec9c     node_usb.obj
 0002:0000cc9c       __ehfuncinfo$?ThrowTypeError@Nan@@YAXPBD@Z 1003ec9c     node_usb.obj
 0002:0000cc9c       __ehfuncinfo$?ThrowError@Nan@@YAXPBD@Z 1003ec9c     device.obj
 0002:0000ccc0       __unwindtable$??1?$Persistent@VFunction@v8@@V?$NonCopyablePersistentTraits@VFunction@v8@@@2@@Nan@@QAE@XZ 1003ecc0     device.obj
 0002:0000ccc0       __unwindtable$??1?$Persistent@VObject@v8@@V?$NonCopyablePersistentTraits@VObject@v8@@@2@@Nan@@QAE@XZ 1003ecc0     node_usb.obj
 0002:0000ccc8       __ehfuncinfo$??1?$Persistent@VObject@v8@@V?$NonCopyablePersistentTraits@VObject@v8@@@2@@Nan@@QAE@XZ 1003ecc8     node_usb.obj
 0002:0000ccc8       __ehfuncinfo$??1?$Persistent@VFunction@v8@@V?$NonCopyablePersistentTraits@VFunction@v8@@@2@@Nan@@QAE@XZ 1003ecc8     device.obj
 0002:0000ccec       __unwindtable$?SetDebugLevel@@YAXABV?$FunctionCallbackInfo@VValue@v8@@@Nan@@@Z 1003ecec     node_usb.obj
 0002:0000cd0c       __ehfuncinfo$?SetDebugLevel@@YAXABV?$FunctionCallbackInfo@VValue@v8@@@Nan@@@Z 1003ed0c     node_usb.obj
 0002:0000cd30       __unwindtable$?GetDeviceList@@YAXABV?$FunctionCallbackInfo@VValue@v8@@@Nan@@@Z 1003ed30     node_usb.obj
 0002:0000cd50       __ehfuncinfo$?GetDeviceList@@YAXABV?$FunctionCallbackInfo@VValue@v8@@@Nan@@@Z 1003ed50     node_usb.obj
 0002:0000cd74       __unwindtable$??__FhotplugThis@@YAXXZ 1003ed74     node_usb.obj
 0002:0000cd74       __unwindtable$??__Fdevice_constructor@@YAXXZ 1003ed74     device.obj
 0002:0000cd7c       __ehfuncinfo$??__Fdevice_constructor@@YAXXZ 1003ed7c     device.obj
 0002:0000cd7c       __ehfuncinfo$??__FhotplugThis@@YAXXZ 1003ed7c     node_usb.obj
 0002:0000cda0       __unwindtable$?handleHotplug@@YAXU?$pair@PAUlibusb_device@@W4libusb_hotplug_event@@@std@@@Z 1003eda0     node_usb.obj
 0002:0000cda8       __ehfuncinfo$?handleHotplug@@YAXU?$pair@PAUlibusb_device@@W4libusb_hotplug_event@@@std@@@Z 1003eda8     node_usb.obj
 0002:0000cdcc       __unwindtable$?begin@Device_SetInterface@@SAXABV?$FunctionCallbackInfo@VValue@v8@@@Nan@@@Z 1003edcc     device.obj
 0002:0000cdcc       __unwindtable$?EnableHotplugEvents@@YAXABV?$FunctionCallbackInfo@VValue@v8@@@Nan@@@Z 1003edcc     node_usb.obj
 0002:0000cdd4       __ehfuncinfo$?begin@Device_SetInterface@@SAXABV?$FunctionCallbackInfo@VValue@v8@@@Nan@@@Z 1003edd4     device.obj
 0002:0000cdd4       __ehfuncinfo$?EnableHotplugEvents@@YAXABV?$FunctionCallbackInfo@VValue@v8@@@Nan@@@Z 1003edd4     node_usb.obj
 0002:0000cdf8       __unwindtable$?DisableHotplugEvents@@YAXABV?$FunctionCallbackInfo@VValue@v8@@@Nan@@@Z 1003edf8     node_usb.obj
 0002:0000ce00       __ehfuncinfo$?DisableHotplugEvents@@YAXABV?$FunctionCallbackInfo@VValue@v8@@@Nan@@@Z 1003ee00     node_usb.obj
 0002:0000ce24       __unwindtable$??$SetMethod@VObject@v8@@VLocal@2@@Nan@@YAXV?$Local@VObject@v8@@@v8@@PBDP6AXABV?$FunctionCallbackInfo@VValue@v8@@@0@@Z@Z 1003ee24     node_usb.obj
 0002:0000ce2c       __ehfuncinfo$??$SetMethod@VObject@v8@@VLocal@2@@Nan@@YAXV?$Local@VObject@v8@@@v8@@PBDP6AXABV?$FunctionCallbackInfo@VValue@v8@@@0@@Z@Z 1003ee2c     node_usb.obj
 0002:0000ce50       __unwindtable$?SetPrototypeMethod@Nan@@YAXV?$Local@VFunctionTemplate@v8@@@v8@@PBDP6AXABV?$FunctionCallbackInfo@VValue@v8@@@1@@Z@Z 1003ee50     device.obj
 0002:0000ce58       __ehfuncinfo$?SetPrototypeMethod@Nan@@YAXV?$Local@VFunctionTemplate@v8@@@v8@@PBDP6AXABV?$FunctionCallbackInfo@VValue@v8@@@1@@Z@Z 1003ee58     device.obj
 0002:0000ce7c       __unwindtable$??1ObjectWrap@Nan@@UAE@XZ 1003ee7c     device.obj
 0002:0000ce84       __ehfuncinfo$??1ObjectWrap@Nan@@UAE@XZ 1003ee84     device.obj
 0002:0000cea8       __unwindtable$??1Device@@UAE@XZ 1003eea8     device.obj
 0002:0000cea8       __unwindtable$??_GObjectWrap@Nan@@UAEPAXI@Z 1003eea8     device.obj
 0002:0000ceb8       __ehfuncinfo$??1Device@@UAE@XZ 1003eeb8     device.obj
 0002:0000ceb8       __ehfuncinfo$??_GObjectWrap@Nan@@UAEPAXI@Z 1003eeb8     device.obj
 0002:0000cedc       __unwindtable$??0Device@@IAE@PAUlibusb_device@@@Z 1003eedc     device.obj
 0002:0000cee4       __ehfuncinfo$??0Device@@IAE@PAUlibusb_device@@@Z 1003eee4     device.obj
 0002:0000cf08       __unwindtable$?get@Device@@SA?AV?$Local@VObject@v8@@@v8@@PAUlibusb_device@@@Z 1003ef08     device.obj
 0002:0000cf10       __ehfuncinfo$?get@Device@@SA?AV?$Local@VObject@v8@@@v8@@PAUlibusb_device@@@Z 1003ef10     device.obj
 0002:0000cf34       __ehfuncinfo$?deviceConstructor@@YAXABV?$FunctionCallbackInfo@VValue@v8@@@Nan@@@Z 1003ef34     device.obj
 0002:0000cf58       __unwindtable$?deviceConstructor@@YAXABV?$FunctionCallbackInfo@VValue@v8@@@Nan@@@Z 1003ef58     device.obj
 0002:0000cf98       __ehfuncinfo$?Device_GetConfigDescriptor@@YAXABV?$FunctionCallbackInfo@VValue@v8@@@Nan@@@Z 1003ef98     device.obj
 0002:0000cfbc       __unwindtable$?Device_GetConfigDescriptor@@YAXABV?$FunctionCallbackInfo@VValue@v8@@@Nan@@@Z 1003efbc     device.obj
 0002:0000cfec       __unwindtable$?Device_Open@@YAXABV?$FunctionCallbackInfo@VValue@v8@@@Nan@@@Z 1003efec     device.obj
 0002:0000cfec       __unwindtable$?begin@Device_ReleaseInterface@@SAXABV?$FunctionCallbackInfo@VValue@v8@@@Nan@@@Z 1003efec     device.obj
 0002:0000cfec       __unwindtable$?begin@Device_SetConfiguration@@SAXABV?$FunctionCallbackInfo@VValue@v8@@@Nan@@@Z 1003efec     device.obj
 0002:0000cff4       __ehfuncinfo$?begin@Device_ReleaseInterface@@SAXABV?$FunctionCallbackInfo@VValue@v8@@@Nan@@@Z 1003eff4     device.obj
 0002:0000cff4       __ehfuncinfo$?Device_Open@@YAXABV?$FunctionCallbackInfo@VValue@v8@@@Nan@@@Z 1003eff4     device.obj
 0002:0000cff4       __ehfuncinfo$?begin@Device_SetConfiguration@@SAXABV?$FunctionCallbackInfo@VValue@v8@@@Nan@@@Z 1003eff4     device.obj
 0002:0000d018       __unwindtable$?Device_Close@@YAXABV?$FunctionCallbackInfo@VValue@v8@@@Nan@@@Z 1003f018     device.obj
 0002:0000d018       __unwindtable$?AttachKernelDriver@@YAXABV?$FunctionCallbackInfo@VValue@v8@@@Nan@@@Z 1003f018     device.obj
 0002:0000d018       __unwindtable$?IsKernelDriverActive@@YAXABV?$FunctionCallbackInfo@VValue@v8@@@Nan@@@Z 1003f018     device.obj
 0002:0000d018       __unwindtable$?DetachKernelDriver@@YAXABV?$FunctionCallbackInfo@VValue@v8@@@Nan@@@Z 1003f018     device.obj
 0002:0000d018       __unwindtable$?Device_ClaimInterface@@YAXABV?$FunctionCallbackInfo@VValue@v8@@@Nan@@@Z 1003f018     device.obj
 0002:0000d020       __ehfuncinfo$?Device_Close@@YAXABV?$FunctionCallbackInfo@VValue@v8@@@Nan@@@Z 1003f020     device.obj
 0002:0000d020       __ehfuncinfo$?AttachKernelDriver@@YAXABV?$FunctionCallbackInfo@VValue@v8@@@Nan@@@Z 1003f020     device.obj
 0002:0000d020       __ehfuncinfo$?DetachKernelDriver@@YAXABV?$FunctionCallbackInfo@VValue@v8@@@Nan@@@Z 1003f020     device.obj
 0002:0000d020       __ehfuncinfo$?IsKernelDriverActive@@YAXABV?$FunctionCallbackInfo@VValue@v8@@@Nan@@@Z 1003f020     device.obj
 0002:0000d020       __ehfuncinfo$?Device_ClaimInterface@@YAXABV?$FunctionCallbackInfo@VValue@v8@@@Nan@@@Z 1003f020     device.obj
 0002:0000d044       __unwindtable$?default_after@Req@@SAXPAUuv_work_s@@@Z 1003f044     device.obj
 0002:0000d05c       __ehfuncinfo$?default_after@Req@@SAXPAUuv_work_s@@@Z 1003f05c     device.obj
 0002:0000d080       __unwindtable$?begin@Device_Reset@@SAXABV?$FunctionCallbackInfo@VValue@v8@@@Nan@@@Z 1003f080     device.obj
 0002:0000d088       __ehfuncinfo$?begin@Device_Reset@@SAXABV?$FunctionCallbackInfo@VValue@v8@@@Nan@@@Z 1003f088     device.obj
 0002:0000d0ac       __unwindtable$??$_Insert_at@AAU?$pair@QAUlibusb_device@@V?$Persistent@VObject@v8@@V?$NonCopyablePersistentTraits@VObject@v8@@@2@@Nan@@@std@@PAU?$_Tree_node@U?$pair@QAUlibusb_device@@V?$Persistent@VObject@v8@@V?$NonCopyablePersistentTraits@VObject@v8@@@2@@Nan@@@std@@PAX@2@@?$_Tree@V?$_Tmap_traits@PAUlibusb_device@@V?$Persistent@VObject@v8@@V?$NonCopyablePersistentTraits@VObject@v8@@@2@@Nan@@U?$less@PAUlibusb_device@@@std@@V?$allocator@U?$pair@QAUlibusb_device@@V?$Persistent@VObject@v8@@V?$NonCopyablePersistentTraits@VObject@v8@@@2@@Nan@@@std@@@5@$0A@@std@@@std@@IAE?AV?$_Tree_iterator@V?$_Tree_val@U?$_Tree_simple_types@U?$pair@QAUlibusb_device@@V?$Persistent@VObject@v8@@V?$NonCopyablePersistentTraits@VObject@v8@@@2@@Nan@@@std@@@std@@@std@@@1@_NPAU?$_Tree_node@U?$pair@QAUlibusb_device@@V?$Persistent@VObject@v8@@V?$NonCopyablePersistentTraits@VObject@v8@@@2@@Nan@@@std@@PAX@1@AAU?$pair@QAUlibusb_device@@V?$Persistent@VObject@v8@@V?$NonCopyablePersistentTraits@VObject@v8@@@2@@Nan@@@1@1@Z 1003f0ac     device.obj
 0002:0000d0ac       __unwindtable$?clear@?$_Tree@V?$_Tmap_traits@PAUlibusb_device@@V?$Persistent@VObject@v8@@V?$NonCopyablePersistentTraits@VObject@v8@@@2@@Nan@@U?$less@PAUlibusb_device@@@std@@V?$allocator@U?$pair@QAUlibusb_device@@V?$Persistent@VObject@v8@@V?$NonCopyablePersistentTraits@VObject@v8@@@2@@Nan@@@std@@@5@$0A@@std@@@std@@QAEXXZ 1003f0ac     device.obj
 0002:0000d0b4       __ehfuncinfo$?clear@?$_Tree@V?$_Tmap_traits@PAUlibusb_device@@V?$Persistent@VObject@v8@@V?$NonCopyablePersistentTraits@VObject@v8@@@2@@Nan@@U?$less@PAUlibusb_device@@@std@@V?$allocator@U?$pair@QAUlibusb_device@@V?$Persistent@VObject@v8@@V?$NonCopyablePersistentTraits@VObject@v8@@@2@@Nan@@@std@@@5@$0A@@std@@@std@@QAEXXZ 1003f0b4     device.obj
 0002:0000d0b4       __ehfuncinfo$??$_Insert_at@AAU?$pair@QAUlibusb_device@@V?$Persistent@VObject@v8@@V?$NonCopyablePersistentTraits@VObject@v8@@@2@@Nan@@@std@@PAU?$_Tree_node@U?$pair@QAUlibusb_device@@V?$Persistent@VObject@v8@@V?$NonCopyablePersistentTraits@VObject@v8@@@2@@Nan@@@std@@PAX@2@@?$_Tree@V?$_Tmap_traits@PAUlibusb_device@@V?$Persistent@VObject@v8@@V?$NonCopyablePersistentTraits@VObject@v8@@@2@@Nan@@U?$less@PAUlibusb_device@@@std@@V?$allocator@U?$pair@QAUlibusb_device@@V?$Persistent@VObject@v8@@V?$NonCopyablePersistentTraits@VObject@v8@@@2@@Nan@@@std@@@5@$0A@@std@@@std@@IAE?AV?$_Tree_iterator@V?$_Tree_val@U?$_Tree_simple_types@U?$pair@QAUlibusb_device@@V?$Persistent@VObject@v8@@V?$NonCopyablePersistentTraits@VObject@v8@@@2@@Nan@@@std@@@std@@@std@@@1@_NPAU?$_Tree_node@U?$pair@QAUlibusb_device@@V?$Persistent@VObject@v8@@V?$NonCopyablePersistentTraits@VObject@v8@@@2@@Nan@@@std@@PAX@1@AAU?$pair@QAUlibusb_device@@V?$Persistent@VObject@v8@@V?$NonCopyablePersistentTraits@VObject@v8@@@2@@Nan@@@1@1@Z 1003f0b4     device.obj
 0002:0000d0d8       __unwindtable$?erase@?$_Tree@V?$_Tmap_traits@PAUlibusb_device@@V?$Persistent@VObject@v8@@V?$NonCopyablePersistentTraits@VObject@v8@@@2@@Nan@@U?$less@PAUlibusb_device@@@std@@V?$allocator@U?$pair@QAUlibusb_device@@V?$Persistent@VObject@v8@@V?$NonCopyablePersistentTraits@VObject@v8@@@2@@Nan@@@std@@@5@$0A@@std@@@std@@QAE?AV?$_Tree_iterator@V?$_Tree_val@U?$_Tree_simple_types@U?$pair@QAUlibusb_device@@V?$Persistent@VObject@v8@@V?$NonCopyablePersistentTraits@VObject@v8@@@2@@Nan@@@std@@@std@@@std@@@2@V?$_Tree_const_iterator@V?$_Tree_val@U?$_Tree_simple_types@U?$pair@QAUlibusb_device@@V?$Persistent@VObject@v8@@V?$NonCopyablePersistentTraits@VObject@v8@@@2@@Nan@@@std@@@std@@@std@@@2@@Z 1003f0d8     device.obj
 0002:0000d0e0       __ehfuncinfo$?erase@?$_Tree@V?$_Tmap_traits@PAUlibusb_device@@V?$Persistent@VObject@v8@@V?$NonCopyablePersistentTraits@VObject@v8@@@2@@Nan@@U?$less@PAUlibusb_device@@@std@@V?$allocator@U?$pair@QAUlibusb_device@@V?$Persistent@VObject@v8@@V?$NonCopyablePersistentTraits@VObject@v8@@@2@@Nan@@@std@@@5@$0A@@std@@@std@@QAE?AV?$_Tree_iterator@V?$_Tree_val@U?$_Tree_simple_types@U?$pair@QAUlibusb_device@@V?$Persistent@VObject@v8@@V?$NonCopyablePersistentTraits@VObject@v8@@@2@@Nan@@@std@@@std@@@std@@@2@V?$_Tree_const_iterator@V?$_Tree_val@U?$_Tree_simple_types@U?$pair@QAUlibusb_device@@V?$Persistent@VObject@v8@@V?$NonCopyablePersistentTraits@VObject@v8@@@2@@Nan@@@std@@@std@@@std@@@2@@Z 1003f0e0     device.obj
 0002:0000d104       __unwindtable$?_Erase@?$_Tree@V?$_Tmap_traits@PAUlibusb_device@@V?$Persistent@VObject@v8@@V?$NonCopyablePersistentTraits@VObject@v8@@@2@@Nan@@U?$less@PAUlibusb_device@@@std@@V?$allocator@U?$pair@QAUlibusb_device@@V?$Persistent@VObject@v8@@V?$NonCopyablePersistentTraits@VObject@v8@@@2@@Nan@@@std@@@5@$0A@@std@@@std@@IAEXPAU?$_Tree_node@U?$pair@QAUlibusb_device@@V?$Persistent@VObject@v8@@V?$NonCopyablePersistentTraits@VObject@v8@@@2@@Nan@@@std@@PAX@2@@Z 1003f104     device.obj
 0002:0000d10c       __ehfuncinfo$?_Erase@?$_Tree@V?$_Tmap_traits@PAUlibusb_device@@V?$Persistent@VObject@v8@@V?$NonCopyablePersistentTraits@VObject@v8@@@2@@Nan@@U?$less@PAUlibusb_device@@@std@@V?$allocator@U?$pair@QAUlibusb_device@@V?$Persistent@VObject@v8@@V?$NonCopyablePersistentTraits@VObject@v8@@@2@@Nan@@@std@@@5@$0A@@std@@@std@@IAEXPAU?$_Tree_node@U?$pair@QAUlibusb_device@@V?$Persistent@VObject@v8@@V?$NonCopyablePersistentTraits@VObject@v8@@@2@@Nan@@@std@@PAX@2@@Z 1003f10c     device.obj
 0002:0000d130       __unwindtable$??$invokeparameter@$00@?$WeakCallbackInfo@Ulibusb_device@@@Nan@@CAXABV?$WeakCallbackInfo@V?$WeakCallbackInfo@Ulibusb_device@@@Nan@@@v8@@@Z 1003f130     device.obj
 0002:0000d138       __ehfuncinfo$??$invokeparameter@$00@?$WeakCallbackInfo@Ulibusb_device@@@Nan@@CAXABV?$WeakCallbackInfo@V?$WeakCallbackInfo@Ulibusb_device@@@Nan@@@v8@@@Z 1003f138     device.obj
 0002:0000d15c       __unwindtable$??$_Buynode@U?$pair@PAUlibusb_device@@V?$Local@VObject@v8@@@v8@@@std@@@?$_Tree_comp_alloc@V?$_Tmap_traits@PAUlibusb_device@@V?$Persistent@VObject@v8@@V?$NonCopyablePersistentTraits@VObject@v8@@@2@@Nan@@U?$less@PAUlibusb_device@@@std@@V?$allocator@U?$pair@QAUlibusb_device@@V?$Persistent@VObject@v8@@V?$NonCopyablePersistentTraits@VObject@v8@@@2@@Nan@@@std@@@5@$0A@@std@@@std@@QAEPAU?$_Tree_node@U?$pair@QAUlibusb_device@@V?$Persistent@VObject@v8@@V?$NonCopyablePersistentTraits@VObject@v8@@@2@@Nan@@@std@@PAX@1@$$QAU?$pair@PAUlibusb_device@@V?$Local@VObject@v8@@@v8@@@1@@Z 1003f15c     device.obj
 0002:0000d164       __ehfuncinfo$??$_Buynode@U?$pair@PAUlibusb_device@@V?$Local@VObject@v8@@@v8@@@std@@@?$_Tree_comp_alloc@V?$_Tmap_traits@PAUlibusb_device@@V?$Persistent@VObject@v8@@V?$NonCopyablePersistentTraits@VObject@v8@@@2@@Nan@@U?$less@PAUlibusb_device@@@std@@V?$allocator@U?$pair@QAUlibusb_device@@V?$Persistent@VObject@v8@@V?$NonCopyablePersistentTraits@VObject@v8@@@2@@Nan@@@std@@@5@$0A@@std@@@std@@QAEPAU?$_Tree_node@U?$pair@QAUlibusb_device@@V?$Persistent@VObject@v8@@V?$NonCopyablePersistentTraits@VObject@v8@@@2@@Nan@@@std@@PAX@1@$$QAU?$pair@PAUlibusb_device@@V?$Local@VObject@v8@@@v8@@@1@@Z 1003f164     device.obj
 0002:0000d188       __unwindtable$??$_Insert_nohint@AAU?$pair@QAUlibusb_device@@V?$Persistent@VObject@v8@@V?$NonCopyablePersistentTraits@VObject@v8@@@2@@Nan@@@std@@PAU?$_Tree_node@U?$pair@QAUlibusb_device@@V?$Persistent@VObject@v8@@V?$NonCopyablePersistentTraits@VObject@v8@@@2@@Nan@@@std@@PAX@2@@?$_Tree@V?$_Tmap_traits@PAUlibusb_device@@V?$Persistent@VObject@v8@@V?$NonCopyablePersistentTraits@VObject@v8@@@2@@Nan@@U?$less@PAUlibusb_device@@@std@@V?$allocator@U?$pair@QAUlibusb_device@@V?$Persistent@VObject@v8@@V?$NonCopyablePersistentTraits@VObject@v8@@@2@@Nan@@@std@@@5@$0A@@std@@@std@@IAE?AU?$pair@V?$_Tree_iterator@V?$_Tree_val@U?$_Tree_simple_types@U?$pair@QAUlibusb_device@@V?$Persistent@VObject@v8@@V?$NonCopyablePersistentTraits@VObject@v8@@@2@@Nan@@@std@@@std@@@std@@@std@@_N@1@_NAAU?$pair@QAUlibusb_device@@V?$Persistent@VObject@v8@@V?$NonCopyablePersistentTraits@VObject@v8@@@2@@Nan@@@1@PAU?$_Tree_node@U?$pair@QAUlibusb_device@@V?$Persistent@VObject@v8@@V?$NonCopyablePersistentTraits@VObject@v8@@@2@@Nan@@@std@@PAX@1@@Z 1003f188     device.obj
 0002:0000d198       __ehfuncinfo$??$_Insert_nohint@AAU?$pair@QAUlibusb_device@@V?$Persistent@VObject@v8@@V?$NonCopyablePersistentTraits@VObject@v8@@@2@@Nan@@@std@@PAU?$_Tree_node@U?$pair@QAUlibusb_device@@V?$Persistent@VObject@v8@@V?$NonCopyablePersistentTraits@VObject@v8@@@2@@Nan@@@std@@PAX@2@@?$_Tree@V?$_Tmap_traits@PAUlibusb_device@@V?$Persistent@VObject@v8@@V?$NonCopyablePersistentTraits@VObject@v8@@@2@@Nan@@U?$less@PAUlibusb_device@@@std@@V?$allocator@U?$pair@QAUlibusb_device@@V?$Persistent@VObject@v8@@V?$NonCopyablePersistentTraits@VObject@v8@@@2@@Nan@@@std@@@5@$0A@@std@@@std@@IAE?AU?$pair@V?$_Tree_iterator@V?$_Tree_val@U?$_Tree_simple_types@U?$pair@QAUlibusb_device@@V?$Persistent@VObject@v8@@V?$NonCopyablePersistentTraits@VObject@v8@@@2@@Nan@@@std@@@std@@@std@@@std@@_N@1@_NAAU?$pair@QAUlibusb_device@@V?$Persistent@VObject@v8@@V?$NonCopyablePersistentTraits@VObject@v8@@@2@@Nan@@@1@PAU?$_Tree_node@U?$pair@QAUlibusb_device@@V?$Persistent@VObject@v8@@V?$NonCopyablePersistentTraits@VObject@v8@@@2@@Nan@@@std@@PAX@1@@Z 1003f198     device.obj
 0002:0000d1bc       __unwindtable$??$invokeparameter@$0A@@?$WeakCallbackInfo@Ulibusb_device@@@Nan@@CAXABV?$WeakCallbackInfo@V?$WeakCallbackInfo@Ulibusb_device@@@Nan@@@v8@@@Z 1003f1bc     device.obj
 0002:0000d1c4       __ehfuncinfo$??$invokeparameter@$0A@@?$WeakCallbackInfo@Ulibusb_device@@@Nan@@CAXABV?$WeakCallbackInfo@V?$WeakCallbackInfo@Ulibusb_device@@@Nan@@@v8@@@Z 1003f1c4     device.obj
 0002:0000d1e8       __unwindtable$??0Transfer@@QAE@XZ 1003f1e8     transfer.obj
 0002:0000d200       __ehfuncinfo$??0Transfer@@QAE@XZ 1003f200     transfer.obj
 0002:0000d224       __ehfuncinfo$??1Transfer@@UAE@XZ 1003f224     transfer.obj
 0002:0000d248       __unwindtable$??1Transfer@@UAE@XZ 1003f248     transfer.obj
 0002:0000d280       __unwindtable$?Transfer_constructor@@YAXABV?$FunctionCallbackInfo@VValue@v8@@@Nan@@@Z 1003f280     transfer.obj
 0002:0000d290       __ehfuncinfo$?Transfer_constructor@@YAXABV?$FunctionCallbackInfo@VValue@v8@@@Nan@@@Z 1003f290     transfer.obj
 0002:0000d2b4       __unwindtable$?Transfer_Submit@@YAXABV?$FunctionCallbackInfo@VValue@v8@@@Nan@@@Z 1003f2b4     transfer.obj
 0002:0000d2b4       __unwindtable$?Transfer_Cancel@@YAXABV?$FunctionCallbackInfo@VValue@v8@@@Nan@@@Z 1003f2b4     transfer.obj
 0002:0000d2bc       __ehfuncinfo$?Transfer_Cancel@@YAXABV?$FunctionCallbackInfo@VValue@v8@@@Nan@@@Z 1003f2bc     transfer.obj
 0002:0000d2bc       __ehfuncinfo$?Transfer_Submit@@YAXABV?$FunctionCallbackInfo@VValue@v8@@@Nan@@@Z 1003f2bc     transfer.obj
 0002:0000d2e0       __unwindtable$?handleCompletion@@YAXPAUTransfer@@@Z 1003f2e0     transfer.obj
 0002:0000d2f0       __ehfuncinfo$?handleCompletion@@YAXPAUTransfer@@@Z 1003f2f0     transfer.obj
 0002:0000d3c0       __sehtable$___scrt_is_nonwritable_in_current_image 1003f3c0     LIBCMT:utility.obj
 0002:0000d3e0       __sehtable$?dllmain_crt_process_attach@@YAHQAUHINSTANCE__@@QAX@Z 1003f3e0     LIBCMT:dll_dllmain.obj
 0002:0000d400       __sehtable$?dllmain_crt_process_detach@@YAH_N@Z 1003f400     LIBCMT:dll_dllmain.obj
 0002:0000d420       __sehtable$?dllmain_dispatch@@YAHQAUHINSTANCE__@@KQAX@Z 1003f420     LIBCMT:dll_dllmain.obj
 0002:0000d478       __sehtable$___FrameUnwindToState 1003f478     libvcruntime:frame.obj
 0002:0000d4a0       __sehtable$?CallCatchBlock@@YAPAXPAUEHExceptionRecord@@PAUEHRegistrationNode@@PAU_CONTEXT@@PBU_s_FuncInfo@@PAXHK@Z 1003f4a0     libvcruntime:frame.obj
 0002:0000d4c8       __sehtable$___BuildCatchObject 1003f4c8     libvcruntime:frame.obj
 0002:0000d4e8       __sehtable$___DestructExceptionObject 1003f4e8     libvcruntime:frame.obj
 0002:0000d504       __catchsym$?CallUnexpected@@YAXPBU_s_ESTypeList@@@Z$2 1003f504     libvcruntime:frame.obj
 0002:0000d514       __unwindtable$?CallUnexpected@@YAXPBU_s_ESTypeList@@@Z 1003f514     libvcruntime:frame.obj
 0002:0000d524       __tryblocktable$?CallUnexpected@@YAXPBU_s_ESTypeList@@@Z 1003f524     libvcruntime:frame.obj
 0002:0000d538       __ehfuncinfo$?CallUnexpected@@YAXPBU_s_ESTypeList@@@Z 1003f538     libvcruntime:frame.obj
 0002:0000d560       __sehtable$___BuildCatchObjectHelper 1003f560     libvcruntime:frame.obj
 0002:0000d5b8       __sehtable$??$?RV<lambda_ab9923ffb5d694ec0d78876dd103e44f>@@AAV<lambda_481dd5778c961fbcd3b60b650e9b9dc4>@@V<lambda_7923d86c9e3f319b415918ec4b39749c>@@@?$__crt_seh_guarded_call@H@@QAEH$$QAV<lambda_ab9923ffb5d694ec0d78876dd103e44f>@@AAV<lambda_481dd5778c961fbcd3b60b650e9b9dc4>@@$$QAV<lambda_7923d86c9e3f319b415918ec4b39749c>@@@Z 1003f5b8     libucrt:output.obj
 0002:0000d5d8       __sehtable$??$?RV<lambda_b0cac3301889906f8da68b04e3d9a7f4>@@AAV<lambda_9a20e10065b92b5193c3597a66cba9d4>@@V<lambda_24b35df97fd4c1fecac72a72d95cc146>@@@?$__crt_seh_guarded_call@H@@QAEH$$QAV<lambda_b0cac3301889906f8da68b04e3d9a7f4>@@AAV<lambda_9a20e10065b92b5193c3597a66cba9d4>@@$$QAV<lambda_24b35df97fd4c1fecac72a72d95cc146>@@@Z 1003f5d8     libucrt:fputs.obj
 0002:0000d5f8       __sehtable$??$common_getenv@D@@YAPADQBD@Z 1003f5f8     libucrt:getenv.obj
 0002:0000d618       __sehtable$??$thread_start@P6GIPAX@Z@@YGKQAX@Z 1003f618     libucrt:thread.obj
 0002:0000d638       __sehtable$__query_new_handler 1003f638     libucrt:new_handler.obj
 0002:0000d658       __sehtable$?common_exit@@YAXHW4_crt_exit_cleanup_mode@@W4_crt_exit_return_mode@@@Z 1003f658     libucrt:exit.obj
 0002:0000d680       __sehtable$??$?RV<lambda_800076c951b434888f4765a74a194fcc>@@AAV<lambda_4e60a939b0d047cfe11ddc22648dfba9>@@V<lambda_6dbb1268764f43b569ce7b67e331d33a>@@@?$__crt_seh_guarded_call@H@@QAEH$$QAV<lambda_800076c951b434888f4765a74a194fcc>@@AAV<lambda_4e60a939b0d047cfe11ddc22648dfba9>@@$$QAV<lambda_6dbb1268764f43b569ce7b67e331d33a>@@@Z 1003f680     libucrt:onexit.obj
 0002:0000d6a0       __sehtable$??$?RV<lambda_995298e7d72eb4c2aab26c0585b3abe5>@@AAV<lambda_275893d493268fdec8709772e3fcec0e>@@V<lambda_293819299cbf9a7022e18b56a874bb5c>@@@?$__crt_seh_guarded_call@H@@QAEH$$QAV<lambda_995298e7d72eb4c2aab26c0585b3abe5>@@AAV<lambda_275893d493268fdec8709772e3fcec0e>@@$$QAV<lambda_293819299cbf9a7022e18b56a874bb5c>@@@Z 1003f6a0     libucrt:onexit.obj
 0002:0000d6c0       __sehtable$_terminate      1003f6c0     libucrt:terminate.obj
 0002:0000d6e0       __sehtable$??$?RV<lambda_9df27f884b057bc3edfc946cb5b7cf47>@@AAV<lambda_e69574bed617af4e071282c136b37893>@@V<lambda_cc0d902bcbbeb830f749456577db4721>@@@?$__crt_seh_guarded_call@X@@QAEX$$QAV<lambda_9df27f884b057bc3edfc946cb5b7cf47>@@AAV<lambda_e69574bed617af4e071282c136b37893>@@$$QAV<lambda_cc0d902bcbbeb830f749456577db4721>@@@Z 1003f6e0     libucrt:per_thread_data.obj
 0002:0000d700       __sehtable$??$?RV<lambda_3518db117f0e7cdb002338c5d3c47b6c>@@AAV<lambda_b2ea41f6bbb362cd97d94c6828d90b61>@@V<lambda_abdedf541bb04549bc734292b4a045d4>@@@?$__crt_seh_guarded_call@X@@QAEX$$QAV<lambda_3518db117f0e7cdb002338c5d3c47b6c>@@AAV<lambda_b2ea41f6bbb362cd97d94c6828d90b61>@@$$QAV<lambda_abdedf541bb04549bc734292b4a045d4>@@@Z 1003f700     libucrt:per_thread_data.obj
 0002:0000d720       __sehtable$??$?RV<lambda_51b6e8b1eb166f2a3faf91f424b38130>@@AAV<lambda_6250bd4b2a391816dd638c3bf72b0bcb>@@V<lambda_0b5a4a3e68152e1d9b943535f5f47bed>@@@?$__crt_seh_guarded_call@X@@QAEX$$QAV<lambda_51b6e8b1eb166f2a3faf91f424b38130>@@AAV<lambda_6250bd4b2a391816dd638c3bf72b0bcb>@@$$QAV<lambda_0b5a4a3e68152e1d9b943535f5f47bed>@@@Z 1003f720     libucrt:per_thread_data.obj
 0002:0000d740       __sehtable$??$?RV<lambda_5b71d36f03204c0beab531769a5b5694>@@AAV<lambda_be2b3da3f62db62e9dad5dc70221a656>@@V<lambda_8f9ce462984622f9bf76b59e2aaaf805>@@@?$__crt_seh_guarded_call@X@@QAEX$$QAV<lambda_5b71d36f03204c0beab531769a5b5694>@@AAV<lambda_be2b3da3f62db62e9dad5dc70221a656>@@$$QAV<lambda_8f9ce462984622f9bf76b59e2aaaf805>@@@Z 1003f740     libucrt:per_thread_data.obj
 0002:0000d760       __sehtable$___acrt_uninitialize_locale 1003f760     libucrt:wsetlocale.obj
 0002:0000d780       __sehtable$__fcloseall     1003f780     libucrt:closeall.obj
 0002:0000d7a0       __sehtable$_fflush         1003f7a0     libucrt:fflush.obj
 0002:0000d7c0       __sehtable$_common_flush_all 1003f7c0     libucrt:fflush.obj
 0002:0000d7e8       __sehtable$___acrt_initialize_lowio 1003f7e8     libucrt:ioinit.obj
 0002:0000d808       __sehtable$??$?RV<lambda_d92cfe8357b99225085016881b624cb0>@@AAV<lambda_b721fa326cdb32351d23dfa67958c160>@@V<lambda_42d75b0848218ec137fa420c8ba9fdf9>@@@?$__crt_seh_guarded_call@H@@QAEH$$QAV<lambda_d92cfe8357b99225085016881b624cb0>@@AAV<lambda_b721fa326cdb32351d23dfa67958c160>@@$$QAV<lambda_42d75b0848218ec137fa420c8ba9fdf9>@@@Z 1003f808     libucrt:setvbuf.obj
 0002:0000d828       __sehtable$_raise          1003f828     libucrt:signal.obj
 0002:0000d848       __sehtable$??$?RV<lambda_a048d3beccc847880fc8490e18b82769>@@AAV<lambda_ec61778202f4f5fc7e7711acc23c3bca>@@V<lambda_f7496a158712204296dd6628a163878e>@@@?$__crt_seh_guarded_call@P6AXH@Z@@QAEP6AXH@Z$$QAV<lambda_a048d3beccc847880fc8490e18b82769>@@AAV<lambda_ec61778202f4f5fc7e7711acc23c3bca>@@$$QAV<lambda_f7496a158712204296dd6628a163878e>@@@Z 1003f848     libucrt:signal.obj
 0002:0000d868       __sehtable$___acrt_update_thread_multibyte_data 1003f868     libucrt:mbctype.obj
 0002:0000d888       __sehtable$??$?RV<lambda_978dc153c237d78434369da87b74ff60>@@AAV<lambda_ad1ced32f4ac17aa236e5ef05d6b3b7c>@@V<lambda_4a8533e2866a575feecb8298ce776b0d>@@@?$__crt_seh_guarded_call@X@@QAEX$$QAV<lambda_978dc153c237d78434369da87b74ff60>@@AAV<lambda_ad1ced32f4ac17aa236e5ef05d6b3b7c>@@$$QAV<lambda_4a8533e2866a575feecb8298ce776b0d>@@@Z 1003f888     libucrt:mbctype.obj
 0002:0000d8a8       __sehtable$___acrt_update_thread_locale_data 1003f8a8     libucrt:locale_refcounting.obj
 0002:0000d8c8       __sehtable$_fclose         1003f8c8     libucrt:fclose.obj
 0002:0000d8e8       __sehtable$??$?RV<lambda_61cee617f5178ae960314fd4d05640a0>@@AAV<lambda_6978c1fb23f02e42e1d9e99668cc68aa>@@V<lambda_9cd88cf8ad10232537feb2133f08c833>@@@?$__crt_seh_guarded_call@H@@QAEH$$QAV<lambda_61cee617f5178ae960314fd4d05640a0>@@AAV<lambda_6978c1fb23f02e42e1d9e99668cc68aa>@@$$QAV<lambda_9cd88cf8ad10232537feb2133f08c833>@@@Z 1003f8e8     libucrt:commit.obj
 0002:0000d908       __sehtable$__write         1003f908     libucrt:write.obj
 0002:0000d928       __sehtable$___acrt_lowio_ensure_fh_exists 1003f928     libucrt:osfinfo.obj
 0002:0000d948       __sehtable$??$?RV<lambda_123407a5e2ac06da108355a851863b7a>@@AAV<lambda_2fe9b910cf3cbf4a0ab98a02ba45b3ec>@@V<lambda_ae55bdf541ad94d75914d381c370e64d>@@@?$__crt_seh_guarded_call@H@@QAEH$$QAV<lambda_123407a5e2ac06da108355a851863b7a>@@AAV<lambda_2fe9b910cf3cbf4a0ab98a02ba45b3ec>@@$$QAV<lambda_ae55bdf541ad94d75914d381c370e64d>@@@Z 1003f948     libucrt:close.obj
 0002:0000d968       __sehtable$??$common_lseek@_J@@YA_JH_JH@Z 1003f968     libucrt:lseek.obj
 0002:0000d988       __sehtable$__IsNonwritableInCurrentImage 1003f988     LIBCMT:pesect.obj
 0002:0000d9b0       .edata                     1003f9b0     usb_bindings.exp
 0002:0000d9d8       rgpv                       1003f9d8     usb_bindings.exp
 0002:0000d9dc       rgszName                   1003f9dc     usb_bindings.exp
 0002:0000d9e0       rgwOrd                     1003f9e0     usb_bindings.exp
 0002:0000d9e2       szName                     1003f9e2     usb_bindings.exp
 0002:0000d9f4       $N00001                    1003f9f4     usb_bindings.exp
 0002:0000dd78       .idata$6                   1003fd78     kernel32:KERNEL32.dll
 0002:0000f0a2       .idata$6                   100410a2     iojs:node.dll
 0002:0000f874       .idata$6                   10041874     user32:USER32.dll
 0003:00000010       ?__vcrt_flsindex@@3KA      10042010     libvcruntime:per_thread_data.obj
 0003:000000d8       _errno_no_memory           100420d8     libucrt:errno.obj
 0003:000000dc       _doserrno_no_memory        100420dc     libucrt:errno.obj
 0003:000000e4       ___acrt_flsindex           100420e4     libucrt:per_thread_data.obj
 0003:000001e4       ___rgctypeflag             100421e4     libucrt:mbctype.obj
 0003:000001e8       ___rgcode_page_info        100421e8     libucrt:mbctype.obj
 0003:00000780       __module                   10042780     node_usb.obj
 0003:000007a4       ?first_init@?1??libusb_init@@9@9 100427a4     libusb:core.obj
 0003:000007a8       ?handle_id@?1??libusb_hotplug_register_callback@@9@9 100427a8     libusb:hotplug.obj
 0003:000007c0       _windows_version_str       100427c0     libusb:windows_usb.obj
 0003:00000888       _concurrent_usage          10042888     libusb:windows_usb.obj
 0003:00000988       ?module_local_atexit_table@@3U_onexit_table_t@@A 10042988     LIBCMT:utility.obj
 0003:00000994       ?module_local_at_quick_exit_table@@3U_onexit_table_t@@A 10042994     LIBCMT:utility.obj
 0003:000009a0       ?is_initialized_as_dll@@3_NA 100429a0     LIBCMT:utility.obj
 0003:000009a4       ?__proc_attached@@3HA      100429a4     LIBCMT:dll_dllmain.obj
 0003:000009a8       _GS_ExceptionRecord        100429a8     LIBCMT:gs_report.obj
 0003:000009f8       _GS_ContextRecord          100429f8     LIBCMT:gs_report.obj
 0003:00000cdc       ?__vcrt_startup_thread_ptd@@3U__vcrt_ptd@@A 10042cdc     libvcruntime:per_thread_data.obj
 0003:00000d04       ___vcrt_lock_table         10042d04     libvcruntime:locks.obj
 0003:00000d1c       ___vcrt_locks_initialized  10042d1c     libvcruntime:locks.obj
 0003:00000d20       ?module_handles@@3PAPAUHINSTANCE__@@A 10042d20     libvcruntime:winapi_downlevel.obj
 0003:00000d30       ?encoded_function_pointers@@3PAPAXA 10042d30     libvcruntime:winapi_downlevel.obj
 0003:00000d80       ?heap@@3V_HeapManager@@A   10042d80     libvcruntime:undname.obj
 0003:00000d94       ___acrt_invalid_parameter_handler 10042d94     libucrt:invalid_parameter.obj
 0003:00000da4       ___acrt_new_handler        10042da4     libucrt:new_handler.obj
 0003:00000da8       _c_termination_complete    10042da8     libucrt:exit.obj
 0003:00000dac       _thread_local_exit_callback_func 10042dac     libucrt:exit.obj
 0003:00000db0       ?c_exit_complete@?5??common_exit@@YAXHW4_crt_exit_cleanup_mode@@W4_crt_exit_return_mode@@@Z@4_NA 10042db0     libucrt:exit.obj
 0003:00000db8       ?program_name@?5???$common_configure_argv@D@@YAHW4_crt_argv_mode@@@Z@4PADA 10042db8     libucrt:argv_parsing.obj
 0003:00000ef0       _module_handles            10042ef0     libucrt:winapi_thunks.obj
 0003:00000f40       _encoded_function_pointers 10042f40     libucrt:winapi_thunks.obj
 0003:00000fc0       ?state_cache@?1??__acrt_is_packaged_app@@9@4JA 10042fc0     libucrt:winapi_thunks.obj
 0003:000011cc       _enable_percent_n          100431cc     libucrt:printf_count_output.obj
 0003:000011d8       ___acrt_lock_table         100431d8     libucrt:locks.obj
 0003:00001310       ___acrt_locks_initialized  10043310     libucrt:locks.obj
 0003:00001314       ___acrt_app_type           10043314     libucrt:report_runtime_error.obj
 0003:00001318       ___acrt_error_mode         10043318     libucrt:set_error_mode.obj
 0003:0000131c       _ctrlc_action              1004331c     libucrt:signal.obj
 0003:00001320       _ctrlbreak_action          10043320     libucrt:signal.obj
 0003:00001324       _abort_action              10043324     libucrt:signal.obj
 0003:00001328       _term_action               10043328     libucrt:signal.obj
 0003:00001344       _fSystemSet                10043344     libucrt:mbctype.obj
 0003:00001348       ?initialized@?1??__acrt_initialize_multibyte@@9@4_NA 10043348     libucrt:mbctype.obj
 0003:00001368       _user_matherr              10043368     libucrt:matherr.obj
 0003:0000136c       ___acrt_global_new_mode    1004336c     libucrt:new_mode.obj
 0003:0000137c       __pmatherr_set             1004337c     libucrt:libm_error.obj
 0003:00001390       _default_context_lock      10043390     libusb:core.obj
 0003:00001394       _timestamp_origin          10043394     libusb:core.obj
 0003:0000139c       ?has_debug_header_been_displayed@?1??usbi_log_v@@9@9 1004339c     libusb:core.obj
 0003:000013a4       _default_context_refcnt    100433a4     libusb:core.obj
 0003:000013ac       _pCancelIoEx               100433ac     libusb:poll_windows.obj
 0003:000013b0       _compat_spinlock           100433b0     libusb:poll_windows.obj
 0003:000013b8       _CM_Get_Parent             100433b8     libusb:windows_usb.obj
 0003:000013bc       _pUnregisterClassA         100433bc     libusb:windows_usb.obj
 0003:000013c4       _pUnregisterDeviceNotification 100433c4     libusb:windows_usb.obj
 0003:000013cc       _pSetupDiDestroyDeviceInfoList 100433cc     libusb:windows_usb.obj
 0003:000013d0       _CM_Get_Child              100433d0     libusb:windows_usb.obj
 0003:000013d4       _HidD_GetProductString     100433d4     libusb:windows_usb.obj
 0003:000013d8       _pSetupDiEnumDeviceInterfaces 100433d8     libusb:windows_usb.obj
 0003:000013dc       _CM_Get_Sibling            100433dc     libusb:windows_usb.obj
 0003:000013e8       _HidD_GetAttributes        100433e8     libusb:windows_usb.obj
 0003:000013ec       _pRegQueryValueExW         100433ec     libusb:windows_usb.obj
 0003:000013f0       _pIsWow64Process           100433f0     libusb:windows_usb.obj
 0003:000013f4       _HidD_GetManufacturerString 100433f4     libusb:windows_usb.obj
 0003:00001400       _pRegisterClassExA         10043400     libusb:windows_usb.obj
 0003:00001404       _CM_Get_Device_ID_Size     10043404     libusb:windows_usb.obj
 0003:00001408       _pSetupDiGetClassDevsA     10043408     libusb:windows_usb.obj
 0003:00001420       _HidD_FlushQueue           10043420     libusb:windows_usb.obj
 0003:00001424       _pSetupDiOpenDevRegKey     10043424     libusb:windows_usb.obj
 0003:00001428       _pSetupDiGetClassDevsExA   10043428     libusb:windows_usb.obj
 0003:0000142c       _pSetupDiGetDeviceRegistryPropertyA 1004342c     libusb:windows_usb.obj
 0003:00001434       _pSetupDiEnumDeviceInfo    10043434     libusb:windows_usb.obj
 0003:00001438       _HidD_SetOutputReport      10043438     libusb:windows_usb.obj
 0003:0000143c       _HidP_GetCaps              1004343c     libusb:windows_usb.obj
 0003:00001440       _HidD_GetPreparsedData     10043440     libusb:windows_usb.obj
 0003:00001444       _HidD_FreePreparsedData    10043444     libusb:windows_usb.obj
 0003:00001448       _pRegCloseKey              10043448     libusb:windows_usb.obj
 0003:0000144c       _HidD_SetFeature           1004344c     libusb:windows_usb.obj
 0003:00001450       _pSetupDiGetDeviceInterfaceDetailA 10043450     libusb:windows_usb.obj
 0003:00001454       _HidD_GetPhysicalDescriptor 10043454     libusb:windows_usb.obj
 0003:00001460       _HidP_GetValueCaps         10043460     libusb:windows_usb.obj
 0003:00001464       _pRegisterDeviceNotificationA 10043464     libusb:windows_usb.obj
 0003:00001468       _pCLSIDFromString          10043468     libusb:windows_usb.obj
 0003:000014f0       _HidD_GetFeature           100434f0     libusb:windows_usb.obj
 0003:000014f4       _pSetupDiOpenDeviceInterfaceRegKey 100434f4     libusb:windows_usb.obj
 0003:000014fc       _HidD_SetNumInputBuffers   100434fc     libusb:windows_usb.obj
 0003:00001500       _HidD_GetHidGuid           10043500     libusb:windows_usb.obj
 0003:00001504       _CM_Get_Device_IDA         10043504     libusb:windows_usb.obj
 0003:00001508       _HidD_GetInputReport       10043508     libusb:windows_usb.obj
 0003:0000150c       _HidD_GetSerialNumberString 1004350c     libusb:windows_usb.obj
 0003:0000151c       ?device_constructor@@3V?$Persistent@VFunctionTemplate@v8@@V?$NonCopyablePersistentTraits@VFunctionTemplate@v8@@@2@@Nan@@A 1004351c     device.obj
 0003:000015c8       ?guid_string@?1??guid_to_string@@9@9 100435c8     libusb:windows_usb.obj
 0003:000016a0       ?err_string@?1??windows_error_str@@9@9 100436a0     libusb:windows_usb.obj
 0003:000017a0       _WinUSBX                   100437a0     libusb:windows_usb.obj
 0004:00000000       __guard_fids___beginthreadex 10048000     libucrt:thread.obj
 0004:00000004       __guard_fids____dcrt_uninitialize_environments_nolock 10048004     libucrt:environment_initialization.obj
 0004:0000000c       __guard_fids__             1004800c     libucrt:initialization.obj
 0004:0000006c       __guard_fids____acrt_initialize_ptd 1004806c     libucrt:per_thread_data.obj
 0004:00000070       __guard_fids__             10048070     libucrt:stdio_initializer.obj
 0004:00000074       __guard_fids__             10048074     libucrt:stdio_initializer.obj
 0004:00000078       __guard_fids_??$common_show_message_box@_W@@YAHQB_W0I@Z 10048078     libucrt:crtmbox.obj
 0004:0000007c       __guard_fids_??$expand_argument_wildcards@D@@YAHQAD0AAV?$argument_list@D@?A0xb0e4b824@@@Z 1004807c     libucrt:argv_wildcards.obj
 0004:00000080       __guard_fids__             10048080     libucrt:locale_initializer.obj
 0004:00000084       __guard_fids__             10048084     libucrt:multibyte_initializer.obj
 0004:00000088       __guard_fids____libm_error_support 10048088     libucrt:libm_error.obj
 0004:0000008c       __guard_fids__             1004808c     libucrt:console_output_initializer.obj
 0004:00000090       __guard_fids__             10048090     libucrt:sse2_initializer.obj
 0004:00000094       __guard_fids__             10048094     libcpmt:xthrow.obj
 0004:0000009c       __guard_fids__             1004809c     libcpmt:xthrow.obj
 0004:000000a4       __guard_fids__             100480a4     libcpmt:xthrow.obj
 0004:000000ac       __guard_fids__             100480ac     libcpmt:xthrow.obj
 0004:000000b4       __guard_fids__             100480b4     libcpmt:xthrow.obj
 0004:000000b8       __guard_fids__             100480b8     libcpmt:xthrow.obj
 0004:000000bc       __guard_fids__             100480bc     libcpmt:xthrow.obj
 0004:000000c0       __guard_fids__             100480c0     libcpmt:xthrow.obj
 0004:000000c4       __guard_fids__             100480c4     libcpmt:xthrow.obj
 0004:000000c8       __guard_fids__             100480c8     libcpmt:xthrow.obj
 0004:000000cc       __guard_fids_?dllmain_crt_process_attach@@YAHQAUHINSTANCE__@@QAX@Z 100480cc     LIBCMT:dll_dllmain.obj
 0004:000000d4       __guard_fids_?dllmain_dispatch@@YAHQAUHINSTANCE__@@KQAX@Z 100480d4     LIBCMT:dll_dllmain.obj
 0004:000000d8       __guard_fids__             100480d8     LIBCMT:std_type_info_static.obj
 0004:000000dc       __guard_fids__             100480dc     LIBCMT:throw_bad_alloc.obj
 0004:000000e4       __guard_fids__             100480e4     LIBCMT:throw_bad_alloc.obj
 0004:000000e8       __guard_fids__             100480e8     LIBCMT:throw_bad_alloc.obj
 0004:000000ec       __guard_fids__             100480ec     LIBCMT:guard_support.obj
 0004:000000f0       __guard_fids__             100480f0     libvcruntime:frame.obj
 0004:000000f4       __guard_fids__             100480f4     libvcruntime:frame.obj
 0004:000000fc       __guard_fids__             100480fc     libvcruntime:frame.obj
 0004:00000100       __guard_fids__             10048100     libvcruntime:frame.obj
 0004:00000104       __guard_fids____vcrt_initialize_ptd 10048104     libvcruntime:per_thread_data.obj
 0005:00000060       $R000000                   10049060     * linker generated manifest res *

 Exports

  ordinal    name

        1    __register_usb_bindings_
               exported name: _register_usb_bindings_
